

Microchip MPLAB XC8 Assembler V2.46 build 20240104201356 
                                                                                               Wed Apr 24 14:44:04 2024

Microchip MPLAB XC8 C Compiler v2.46 (Free license) build 20240104201356 Og1 
     1                           	processor	18F4580
     2                           	fnconf	rparam,??,?,0
     3                           	pagewidth 120
     4                           	opt	flic
     5                           	psect	idataCOMRAM,global,class=CODE,delta=1,noexec
     6                           	psect	idataBANK0,global,class=CODE,delta=1,noexec
     7                           	psect	idataBANK1,global,class=CODE,delta=1,noexec
     8                           	psect	mediumconst,global,reloc=2,class=MEDIUMCONST,delta=1,noexec
     9                           	psect	cinit,global,reloc=2,class=CODE,delta=1
    10                           	psect	bssCOMRAM,global,class=COMRAM,space=1,delta=1,lowdata,noexec
    11                           	psect	dataCOMRAM,global,class=COMRAM,space=1,delta=1,lowdata,noexec
    12                           	psect	bssBANK0,global,class=BANK0,space=1,delta=1,lowdata,noexec
    13                           	psect	dataBANK0,global,class=BANK0,space=1,delta=1,lowdata,noexec
    14                           	psect	dataBANK1,global,class=BANK1,space=1,delta=1,lowdata,noexec
    15                           	psect	cstackCOMRAM,global,class=COMRAM,space=1,delta=1,lowdata,noexec
    16                           	psect	text0,global,reloc=2,class=CODE,delta=1
    17                           	psect	text1,global,reloc=2,class=CODE,delta=1
    18                           	psect	text2,global,reloc=2,class=CODE,delta=1
    19                           	psect	text3,global,reloc=2,class=CODE,delta=1
    20                           	psect	text4,global,reloc=2,class=CODE,delta=1
    21                           	psect	text5,global,reloc=2,class=CODE,delta=1
    22                           	psect	text6,global,reloc=2,class=CODE,delta=1
    23                           	psect	text7,global,reloc=2,class=CODE,delta=1
    24                           	psect	text8,global,reloc=2,class=CODE,delta=1
    25                           	psect	text9,global,reloc=2,class=CODE,delta=1
    26                           	psect	text10,global,reloc=2,class=CODE,delta=1
    27                           	psect	text11,global,reloc=2,class=CODE,delta=1
    28                           	psect	text12,global,reloc=2,class=CODE,delta=1
    29                           	psect	text13,global,reloc=2,class=CODE,delta=1
    30                           	psect	text14,global,reloc=2,class=CODE,delta=1
    31                           	psect	text15,global,reloc=2,class=CODE,delta=1
    32                           	psect	text16,global,reloc=2,class=CODE,delta=1
    33                           	psect	text17,global,reloc=2,class=CODE,delta=1
    34                           	psect	text18,global,reloc=2,class=CODE,delta=1
    35                           	psect	text19,global,reloc=2,class=CODE,delta=1
    36                           	psect	text20,global,reloc=2,class=CODE,delta=1
    37                           	psect	text21,global,reloc=2,class=CODE,delta=1
    38                           	psect	text22,global,reloc=2,class=CODE,delta=1
    39                           	psect	text23,global,reloc=2,class=CODE,delta=1
    40                           	psect	text24,global,reloc=2,class=CODE,delta=1
    41                           	psect	text25,global,reloc=2,class=CODE,delta=1
    42                           	psect	text26,global,reloc=2,class=CODE,delta=1
    43                           	psect	text27,global,reloc=2,class=CODE,delta=1
    44                           	psect	text28,global,reloc=2,class=CODE,delta=1
    45                           	psect	text29,global,reloc=2,class=CODE,delta=1,group=1
    46                           	psect	text30,global,reloc=2,class=CODE,delta=1,group=1
    47                           	psect	text31,global,reloc=2,class=CODE,delta=1,group=1
    48                           	psect	text32,global,reloc=2,class=CODE,delta=1
    49                           	psect	text33,global,reloc=2,class=CODE,delta=1
    50                           	psect	text34,global,reloc=2,class=CODE,delta=1
    51                           	psect	text35,global,reloc=2,class=CODE,delta=1
    52                           	psect	text36,global,reloc=2,class=CODE,delta=1
    53                           	psect	text37,global,reloc=2,class=CODE,delta=1
    54                           	psect	text38,global,reloc=2,class=CODE,delta=1
    55                           	psect	text39,global,reloc=2,class=CODE,delta=1
    56                           	psect	text40,global,reloc=2,class=CODE,delta=1,group=2
    57                           	psect	text41,global,reloc=2,class=CODE,delta=1
    58                           	psect	text42,global,reloc=2,class=CODE,delta=1
    59                           	psect	text43,global,reloc=2,class=CODE,delta=1
    60                           	psect	text44,global,reloc=2,class=CODE,delta=1,group=1
    61                           	psect	text45,global,reloc=2,class=CODE,delta=1,group=1
    62                           	psect	intcode,global,reloc=2,class=CODE,delta=1
    63                           	psect	intcode_body,global,reloc=2,class=CODE,delta=1
    64                           	psect	intsave_regs,global,class=BIGRAM,space=1,delta=1,noexec
    65                           	psect	rparam,global,class=COMRAM,space=1,delta=1,noexec
    66                           	psect	temp,global,ovrld,common,class=COMRAM,space=1,delta=1,lowdata
    67                           	psect	idloc,global,abs,ovrld,class=IDLOC,space=5,delta=1,noexec
    68                           	psect	config,global,abs,ovrld,class=CONFIG,space=4,delta=1,noexec
    69   000000                     
    70                           ; Version 2.20
    71                           ; Generated 12/02/2020 GMT
    72                           ; 
    73                           ; Copyright © 2020, Microchip Technology Inc. and its subsidiaries ("Microchip")
    74                           ; All rights reserved.
    75                           ; 
    76                           ; This software is developed by Microchip Technology Inc. and its subsidiaries ("Microch
      +                          ip").
    77                           ; 
    78                           ; Redistribution and use in source and binary forms, with or without modification, are
    79                           ; permitted provided that the following conditions are met:
    80                           ; 
    81                           ;     1. Redistributions of source code must retain the above copyright notice, this lis
      +                          t of
    82                           ;        conditions and the following disclaimer.
    83                           ; 
    84                           ;     2. Redistributions in binary form must reproduce the above copyright notice, this 
      +                          list
    85                           ;        of conditions and the following disclaimer in the documentation and/or other
    86                           ;        materials provided with the distribution.
    87                           ; 
    88                           ;     3. Microchip's name may not be used to endorse or promote products derived from th
      +                          is
    89                           ;        software without specific prior written permission.
    90                           ; 
    91                           ; THIS SOFTWARE IS PROVIDED BY MICROCHIP "AS IS" AND ANY EXPRESS OR IMPLIED WARRANTIES,
    92                           ; INCLUDING, BUT NOT LIMITED TO, THE IMPLIED WARRANTIES OF MERCHANTABILITY AND FITNESS F
      +                          OR
    93                           ; PURPOSE ARE DISCLAIMED.  IN NO EVENT SHALL MICROCHIP BE LIABLE FOR ANY DIRECT, INDIREC
      +                          T,
    94                           ; INCIDENTAL, SPECIAL, EXEMPLARY, OR CONSEQUENTIAL DAMAGES (INCLUDING BUT NOT LIMITED TO
    95                           ; PROCUREMENT OF SUBSTITUTE GOODS OR SERVICES; LOSS OF USE, DATA OR PROFITS; OR BUSINESS
    96                           ; INTERRUPTION) HOWSOEVER CAUSED AND ON ANY THEORY OF LIABILITY, WHETHER IN CONTRACT, ST
      +                          RICT
    97                           ; LIABILITY, OR TORT (INCLUDING NEGLIGENCE OR OTHERWISE) ARISING IN ANY WAY OUT OF THE U
      +                          SE OF
    98                           ; THIS SOFTWARE, EVEN IF ADVISED OF THE POSSIBILITY OF SUCH DAMAGE.
    99                           ; 
   100                           ; 
   101                           ; Code-generator required, PIC18F4580 Definitions
   102                           ; 
   103                           ; SFR Addresses
   104   000000                     
   105                           	psect	idataCOMRAM
   106   002884                     __pidataCOMRAM:
   107                           	callstack 0
   108                           
   109                           ;initializer for _sec
   110   002884  0078               	dw	120
   111                           
   112                           	psect	idataBANK0
   113   002774                     __pidataBANK0:
   114                           	callstack 0
   115                           
   116                           ;initializer for authorisation@once
   117   002774  0001               	dw	1
   118                           
   119                           ;initializer for _flag
   120   002776  0001               	dw	1
   121                           
   122                           ;initializer for _attempt
   123   002778  0003               	dw	3
   124                           
   125                           ;initializer for read_switches@once
   126   00277A  01                 	db	1
   127                           
   128                           ;initializer for _gear
   129   00277B  4F                 	db	79
   130   00277C  4E                 	db	78
   131   00277D  00                 	db	0
   132   00277E  47                 	db	71
   133   00277F  4E                 	db	78
   134   002780  00                 	db	0
   135   002781  47                 	db	71
   136   002782  52                 	db	82
   137   002783  00                 	db	0
   138   002784  47                 	db	71
   139   002785  31                 	db	49
   140   002786  00                 	db	0
   141   002787  47                 	db	71
   142   002788  32                 	db	50
   143   002789  00                 	db	0
   144   00278A  47                 	db	71
   145   00278B  33                 	db	51
   146   00278C  00                 	db	0
   147   00278D  47                 	db	71
   148   00278E  34                 	db	52
   149   00278F  00                 	db	0
   150   002790  43                 	db	67
   151   002791  4F                 	db	79
   152   002792  00                 	db	0
   153                           
   154                           	psect	idataBANK1
   155   00259A                     __pidataBANK1:
   156                           	callstack 0
   157                           
   158                           ;initializer for _menu
   159   00259A  56                 	db	86
   160   00259B  49                 	db	73
   161   00259C  45                 	db	69
   162   00259D  57                 	db	87
   163   00259E  20                 	db	32
   164   00259F  4C                 	db	76
   165   0025A0  4F                 	db	79
   166   0025A1  47                 	db	71
   167   0025A2  00                 	db	0
   168   0025A3  00                 	db	0
   169   0025A4  00                 	db	0
   170   0025A5  00                 	db	0
   171   0025A6  00                 	db	0
   172   0025A7  00                 	db	0
   173   0025A8  00                 	db	0
   174   0025A9  00                 	db	0
   175   0025AA  44                 	db	68
   176   0025AB  4F                 	db	79
   177   0025AC  57                 	db	87
   178   0025AD  4E                 	db	78
   179   0025AE  4C                 	db	76
   180   0025AF  4F                 	db	79
   181   0025B0  41                 	db	65
   182   0025B1  44                 	db	68
   183   0025B2  20                 	db	32
   184   0025B3  4C                 	db	76
   185   0025B4  4F                 	db	79
   186   0025B5  47                 	db	71
   187   0025B6  00                 	db	0
   188   0025B7  00                 	db	0
   189   0025B8  00                 	db	0
   190   0025B9  00                 	db	0
   191   0025BA  43                 	db	67
   192   0025BB  4C                 	db	76
   193   0025BC  45                 	db	69
   194   0025BD  41                 	db	65
   195   0025BE  52                 	db	82
   196   0025BF  20                 	db	32
   197   0025C0  4C                 	db	76
   198   0025C1  4F                 	db	79
   199   0025C2  47                 	db	71
   200   0025C3  00                 	db	0
   201   0025C4  00                 	db	0
   202   0025C5  00                 	db	0
   203   0025C6  00                 	db	0
   204   0025C7  00                 	db	0
   205   0025C8  00                 	db	0
   206   0025C9  00                 	db	0
   207   0025CA  53                 	db	83
   208   0025CB  45                 	db	69
   209   0025CC  54                 	db	84
   210   0025CD  20                 	db	32
   211   0025CE  54                 	db	84
   212   0025CF  49                 	db	73
   213   0025D0  4D                 	db	77
   214   0025D1  45                 	db	69
   215   0025D2  00                 	db	0
   216   0025D3  00                 	db	0
   217   0025D4  00                 	db	0
   218   0025D5  00                 	db	0
   219   0025D6  00                 	db	0
   220   0025D7  00                 	db	0
   221   0025D8  00                 	db	0
   222   0025D9  00                 	db	0
   223   0025DA  43                 	db	67
   224   0025DB  48                 	db	72
   225   0025DC  41                 	db	65
   226   0025DD  4E                 	db	78
   227   0025DE  47                 	db	71
   228   0025DF  45                 	db	69
   229   0025E0  20                 	db	32
   230   0025E1  50                 	db	80
   231   0025E2  41                 	db	65
   232   0025E3  53                 	db	83
   233   0025E4  53                 	db	83
   234   0025E5  57                 	db	87
   235   0025E6  44                 	db	68
   236   0025E7  00                 	db	0
   237   0025E8  00                 	db	0
   238   0025E9  00                 	db	0
   239   000000                     _TMR0	set	4054
   240   000000                     _RCREG	set	4014
   241   000000                     _TXREG	set	4013
   242   000000                     _SPBRG	set	4015
   243   000000                     _SSPADD	set	4040
   244   000000                     _SSPCON1	set	4038
   245   000000                     _EECON2	set	4007
   246   000000                     _TRISC	set	3988
   247   000000                     _ADRESL	set	4035
   248   000000                     _ADRESH	set	4036
   249   000000                     _ACKSTAT	set	32302
   250   000000                     _CKE	set	32318
   251   000000                     _T08BIT	set	32430
   252   000000                     _TRISD7	set	31919
   253   000000                     _GODONE	set	32273
   254   000000                     _ADFM	set	32263
   255   000000                     _RBPU	set	32655
   256   000000                     _TRISD	set	3989
   257   000000                     _ADCON0	set	4034
   258   000000                     _PORTBbits	set	3969
   259   000000                     _RCIF	set	31989
   260   000000                     _TXIF	set	31988
   261   000000                     _CREN	set	32092
   262   000000                     _TRISC6	set	31910
   263   000000                     _TRISC7	set	31911
   264   000000                     _ACKEN	set	32300
   265   000000                     _ACKDT	set	32301
   266   000000                     _RCEN	set	32299
   267   000000                     _RSEN	set	32297
   268   000000                     _PEN	set	32298
   269   000000                     _SEN	set	32296
   270   000000                     _BCLIF	set	32011
   271   000000                     _SMP	set	32319
   272   000000                     _TRISC4	set	31908
   273   000000                     _TRISC3	set	31907
   274   000000                     _TMR0IE	set	32661
   275   000000                     _PSA	set	32427
   276   000000                     _TMR0ON	set	32431
   277   000000                     _T0CS	set	32429
   278   000000                     _PEIE	set	32662
   279   000000                     _TMR0IF	set	32658
   280   000000                     _RD7	set	31775
   281   000000                     _RC0	set	31760
   282   000000                     _RC2	set	31762
   283   000000                     _GO	set	32273
   284   000000                     _ADON	set	32272
   285   000000                     _VCFG0	set	32268
   286   000000                     _VCFG1	set	32269
   287   000000                     _ADCS2	set	32258
   288   000000                     _ADCS1	set	32257
   289   000000                     _ADCS0	set	32256
   290   000000                     _ACQT0	set	32259
   291   000000                     _ACQT1	set	32260
   292   000000                     _ACQT2	set	32261
   293   000000                     _PORTB	set	3969
   294   000000                     _TRISB	set	3987
   295   000000                     _ADCON1	set	4033
   296   000000                     _GIE	set	32663
   297   000000                     _PORTD	set	3971
   298   000000                     _RC1	set	31761
   299   000000                     _PIR2bits	set	4001
   300   000000                     _EECON1bits	set	4006
   301   000000                     _EEDATA	set	4008
   302   000000                     _EEADR	set	4009
   303   000000                     _RCIE	set	31981
   304   000000                     _SSPIF	set	31987
   305   000000                     _SPEN	set	32095
   306   000000                     _BRGH	set	32098
   307   000000                     _SSPBUF	set	4041
   308                           
   309                           	psect	mediumconst
   310   002ED2                     __pmediumconst:
   311                           	callstack 0
   312   002ED2  00                 	db	0
   313   002ED3                     STR_17:
   314   002ED3  43                 	db	67	;'C'
   315   002ED4  6C                 	db	108	;'l'
   316   002ED5  65                 	db	101	;'e'
   317   002ED6  61                 	db	97	;'a'
   318   002ED7  72                 	db	114	;'r'
   319   002ED8  69                 	db	105	;'i'
   320   002ED9  6E                 	db	110	;'n'
   321   002EDA  67                 	db	103	;'g'
   322   002EDB  20                 	db	32
   323   002EDC  6C                 	db	108	;'l'
   324   002EDD  6F                 	db	111	;'o'
   325   002EDE  67                 	db	103	;'g'
   326   002EDF  73                 	db	115	;'s'
   327   002EE0  2E                 	db	46
   328   002EE1  2E                 	db	46
   329   002EE2  2E                 	db	46
   330   002EE3  00                 	db	0
   331   002EE4                     STR_22:
   332   002EE4  45                 	db	69	;'E'
   333   002EE5  6E                 	db	110	;'n'
   334   002EE6  74                 	db	116	;'t'
   335   002EE7  65                 	db	101	;'e'
   336   002EE8  72                 	db	114	;'r'
   337   002EE9  20                 	db	32
   338   002EEA  4E                 	db	78	;'N'
   339   002EEB  65                 	db	101	;'e'
   340   002EEC  77                 	db	119	;'w'
   341   002EED  20                 	db	32
   342   002EEE  50                 	db	80	;'P'
   343   002EEF  61                 	db	97	;'a'
   344   002EF0  73                 	db	115	;'s'
   345   002EF1  73                 	db	115	;'s'
   346   002EF2  77                 	db	119	;'w'
   347   002EF3  64                 	db	100	;'d'
   348   002EF4  00                 	db	0
   349   002EF5                     STR_4:
   350   002EF5  41                 	db	65	;'A'
   351   002EF6  54                 	db	84	;'T'
   352   002EF7  54                 	db	84	;'T'
   353   002EF8  45                 	db	69	;'E'
   354   002EF9  4D                 	db	77	;'M'
   355   002EFA  50                 	db	80	;'P'
   356   002EFB  54                 	db	84	;'T'
   357   002EFC  20                 	db	32
   358   002EFD  4C                 	db	76	;'L'
   359   002EFE  45                 	db	69	;'E'
   360   002EFF  46                 	db	70	;'F'
   361   002F00  54                 	db	84	;'T'
   362   002F01  20                 	db	32
   363   002F02  2D                 	db	45
   364   002F03  20                 	db	32
   365   002F04  00                 	db	0
   366   002F05                     STR_6:
   367   002F05  4E                 	db	78	;'N'
   368   002F06  6F                 	db	111	;'o'
   369   002F07  20                 	db	32
   370   002F08  65                 	db	101	;'e'
   371   002F09  76                 	db	118	;'v'
   372   002F0A  65                 	db	101	;'e'
   373   002F0B  6E                 	db	110	;'n'
   374   002F0C  74                 	db	116	;'t'
   375   002F0D  73                 	db	115	;'s'
   376   002F0E  20                 	db	32
   377   002F0F  66                 	db	102	;'f'
   378   002F10  6F                 	db	111	;'o'
   379   002F11  75                 	db	117	;'u'
   380   002F12  6E                 	db	110	;'n'
   381   002F13  64                 	db	100	;'d'
   382   002F14  00                 	db	0
   383   002F15                     STR_24:
   384   002F15  50                 	db	80	;'P'
   385   002F16  61                 	db	97	;'a'
   386   002F17  73                 	db	115	;'s'
   387   002F18  73                 	db	115	;'s'
   388   002F19  77                 	db	119	;'w'
   389   002F1A  6F                 	db	111	;'o'
   390   002F1B  72                 	db	114	;'r'
   391   002F1C  64                 	db	100	;'d'
   392   002F1D  20                 	db	32
   393   002F1E  63                 	db	99	;'c'
   394   002F1F  68                 	db	104	;'h'
   395   002F20  61                 	db	97	;'a'
   396   002F21  6E                 	db	110	;'n'
   397   002F22  67                 	db	103	;'g'
   398   002F23  65                 	db	101	;'e'
   399   002F24  00                 	db	0
   400   002F25                     STR_1:
   401   002F25  54                 	db	84	;'T'
   402   002F26  49                 	db	73	;'I'
   403   002F27  4D                 	db	77	;'M'
   404   002F28  45                 	db	69	;'E'
   405   002F29  20                 	db	32
   406   002F2A  20                 	db	32
   407   002F2B  20                 	db	32
   408   002F2C  20                 	db	32
   409   002F2D  45                 	db	69	;'E'
   410   002F2E  56                 	db	86	;'V'
   411   002F2F  20                 	db	32
   412   002F30  20                 	db	32
   413   002F31  53                 	db	83	;'S'
   414   002F32  50                 	db	80	;'P'
   415   002F33  00                 	db	0
   416   002F34                     STR_3:
   417   002F34  49                 	db	73	;'I'
   418   002F35  4E                 	db	78	;'N'
   419   002F36  43                 	db	67	;'C'
   420   002F37  4F                 	db	79	;'O'
   421   002F38  52                 	db	82	;'R'
   422   002F39  52                 	db	82	;'R'
   423   002F3A  45                 	db	69	;'E'
   424   002F3B  43                 	db	67	;'C'
   425   002F3C  54                 	db	84	;'T'
   426   002F3D  20                 	db	32
   427   002F3E  50                 	db	80	;'P'
   428   002F3F  41                 	db	65	;'A'
   429   002F40  53                 	db	83	;'S'
   430   002F41  53                 	db	83	;'S'
   431   002F42  00                 	db	0
   432   002F43                     STR_21:
   433   002F43  54                 	db	84	;'T'
   434   002F44  69                 	db	105	;'i'
   435   002F45  6D                 	db	109	;'m'
   436   002F46  65                 	db	101	;'e'
   437   002F47  20                 	db	32
   438   002F48  6E                 	db	110	;'n'
   439   002F49  6F                 	db	111	;'o'
   440   002F4A  74                 	db	116	;'t'
   441   002F4B  20                 	db	32
   442   002F4C  73                 	db	115	;'s'
   443   002F4D  61                 	db	97	;'a'
   444   002F4E  76                 	db	118	;'v'
   445   002F4F  65                 	db	101	;'e'
   446   002F50  64                 	db	100	;'d'
   447   002F51  00                 	db	0
   448   002F52                     STR_2:
   449   002F52  45                 	db	69	;'E'
   450   002F53  6E                 	db	110	;'n'
   451   002F54  74                 	db	116	;'t'
   452   002F55  65                 	db	101	;'e'
   453   002F56  72                 	db	114	;'r'
   454   002F57  20                 	db	32
   455   002F58  50                 	db	80	;'P'
   456   002F59  61                 	db	97	;'a'
   457   002F5A  73                 	db	115	;'s'
   458   002F5B  73                 	db	115	;'s'
   459   002F5C  77                 	db	119	;'w'
   460   002F5D  6F                 	db	111	;'o'
   461   002F5E  72                 	db	114	;'r'
   462   002F5F  64                 	db	100	;'d'
   463   002F60  00                 	db	0
   464   002F61                     STR_26:
   465   002F61  49                 	db	73	;'I'
   466   002F62  6E                 	db	110	;'n'
   467   002F63  63                 	db	99	;'c'
   468   002F64  6F                 	db	111	;'o'
   469   002F65  72                 	db	114	;'r'
   470   002F66  72                 	db	114	;'r'
   471   002F67  65                 	db	101	;'e'
   472   002F68  63                 	db	99	;'c'
   473   002F69  74                 	db	116	;'t'
   474   002F6A  20                 	db	32
   475   002F6B  70                 	db	112	;'p'
   476   002F6C  61                 	db	97	;'a'
   477   002F6D  73                 	db	115	;'s'
   478   002F6E  73                 	db	115	;'s'
   479   002F6F  00                 	db	0
   480   002F70                     STR_16:
   481   002F70  44                 	db	68	;'D'
   482   002F71  4F                 	db	79	;'O'
   483   002F72  57                 	db	87	;'W'
   484   002F73  4E                 	db	78	;'N'
   485   002F74  4C                 	db	76	;'L'
   486   002F75  4F                 	db	79	;'O'
   487   002F76  41                 	db	65	;'A'
   488   002F77  44                 	db	68	;'D'
   489   002F78  20                 	db	32
   490   002F79  44                 	db	68	;'D'
   491   002F7A  4F                 	db	79	;'O'
   492   002F7B  4E                 	db	78	;'N'
   493   002F7C  45                 	db	69	;'E'
   494   002F7D  00                 	db	0
   495   002F7E                     STR_23:
   496   002F7E  52                 	db	82	;'R'
   497   002F7F  65                 	db	101	;'e'
   498   002F80  2D                 	db	45
   499   002F81  45                 	db	69	;'E'
   500   002F82  6E                 	db	110	;'n'
   501   002F83  74                 	db	116	;'t'
   502   002F84  65                 	db	101	;'e'
   503   002F85  72                 	db	114	;'r'
   504   002F86  20                 	db	32
   505   002F87  50                 	db	80	;'P'
   506   002F88  61                 	db	97	;'a'
   507   002F89  73                 	db	115	;'s'
   508   002F8A  73                 	db	115	;'s'
   509   002F8B  00                 	db	0
   510   002F8C                     STR_18:
   511   002F8C  4C                 	db	76	;'L'
   512   002F8D  6F                 	db	111	;'o'
   513   002F8E  67                 	db	103	;'g'
   514   002F8F  73                 	db	115	;'s'
   515   002F90  20                 	db	32
   516   002F91  64                 	db	100	;'d'
   517   002F92  65                 	db	101	;'e'
   518   002F93  6C                 	db	108	;'l'
   519   002F94  65                 	db	101	;'e'
   520   002F95  74                 	db	116	;'t'
   521   002F96  65                 	db	101	;'e'
   522   002F97  64                 	db	100	;'d'
   523   002F98  00                 	db	0
   524   002F99                     STR_5:
   525   002F99  57                 	db	87	;'W'
   526   002F9A  41                 	db	65	;'A'
   527   002F9B  49                 	db	73	;'I'
   528   002F9C  54                 	db	84	;'T'
   529   002F9D  20                 	db	32
   530   002F9E  46                 	db	70	;'F'
   531   002F9F  4F                 	db	79	;'O'
   532   002FA0  52                 	db	82	;'R'
   533   002FA1  20                 	db	32
   534   002FA2  2D                 	db	45
   535   002FA3  20                 	db	32
   536   002FA4  00                 	db	0
   537   002FA5                     STR_13:
   538   002FA5  44                 	db	68	;'D'
   539   002FA6  4F                 	db	79	;'O'
   540   002FA7  57                 	db	87	;'W'
   541   002FA8  4E                 	db	78	;'N'
   542   002FA9  4C                 	db	76	;'L'
   543   002FAA  4F                 	db	79	;'O'
   544   002FAB  41                 	db	65	;'A'
   545   002FAC  44                 	db	68	;'D'
   546   002FAD  49                 	db	73	;'I'
   547   002FAE  4E                 	db	78	;'N'
   548   002FAF  47                 	db	71	;'G'
   549   002FB0  00                 	db	0
   550   002FB1                     STR_25:
   551   002FB1  53                 	db	83	;'S'
   552   002FB2  55                 	db	85	;'U'
   553   002FB3  43                 	db	67	;'C'
   554   002FB4  43                 	db	67	;'C'
   555   002FB5  45                 	db	69	;'E'
   556   002FB6  53                 	db	83	;'S'
   557   002FB7  53                 	db	83	;'S'
   558   002FB8  46                 	db	70	;'F'
   559   002FB9  55                 	db	85	;'U'
   560   002FBA  4C                 	db	76	;'L'
   561   002FBB  4C                 	db	76	;'L'
   562   002FBC  00                 	db	0
   563   002FBD                     STR_20:
   564   002FBD  54                 	db	84	;'T'
   565   002FBE  69                 	db	105	;'i'
   566   002FBF  6D                 	db	109	;'m'
   567   002FC0  65                 	db	101	;'e'
   568   002FC1  20                 	db	32
   569   002FC2  73                 	db	115	;'s'
   570   002FC3  61                 	db	97	;'a'
   571   002FC4  76                 	db	118	;'v'
   572   002FC5  65                 	db	101	;'e'
   573   002FC6  64                 	db	100	;'d'
   574   002FC7  00                 	db	0
   575   002FC8                     STR_11:
   576   002FC8  4C                 	db	76	;'L'
   577   002FC9  4F                 	db	79	;'O'
   578   002FCA  47                 	db	71	;'G'
   579   002FCB  20                 	db	32
   580   002FCC  45                 	db	69	;'E'
   581   002FCD  4D                 	db	77	;'M'
   582   002FCE  50                 	db	80	;'P'
   583   002FCF  54                 	db	84	;'T'
   584   002FD0  59                 	db	89	;'Y'
   585   002FD1  00                 	db	0
   586   002FD2                     STR_12:
   587   002FD2  45                 	db	69	;'E'
   588   002FD3  6D                 	db	109	;'m'
   589   002FD4  70                 	db	112	;'p'
   590   002FD5  74                 	db	116	;'t'
   591   002FD6  79                 	db	121	;'y'
   592   002FD7  20                 	db	32
   593   002FD8  6C                 	db	108	;'l'
   594   002FD9  6F                 	db	111	;'o'
   595   002FDA  67                 	db	103	;'g'
   596   002FDB  00                 	db	0
   597   002FDC                     STR_19:
   598   002FDC  48                 	db	72	;'H'
   599   002FDD  48                 	db	72	;'H'
   600   002FDE  3A                 	db	58	;':'
   601   002FDF  4D                 	db	77	;'M'
   602   002FE0  4D                 	db	77	;'M'
   603   002FE1  3A                 	db	58	;':'
   604   002FE2  53                 	db	83	;'S'
   605   002FE3  53                 	db	83	;'S'
   606   002FE4  00                 	db	0
   607   002FE5                     STR_14:
   608   002FE5  4C                 	db	76	;'L'
   609   002FE6  4F                 	db	79	;'O'
   610   002FE7  47                 	db	71	;'G'
   611   002FE8  53                 	db	83	;'S'
   612   002FE9  2E                 	db	46
   613   002FEA  2E                 	db	46
   614   002FEB  2E                 	db	46
   615   002FEC  00                 	db	0
   616   002FED                     STR_27:
   617   002FED  46                 	db	70	;'F'
   618   002FEE  41                 	db	65	;'A'
   619   002FEF  49                 	db	73	;'I'
   620   002FF0  4C                 	db	76	;'L'
   621   002FF1  45                 	db	69	;'E'
   622   002FF2  44                 	db	68	;'D'
   623   002FF3  00                 	db	0
   624   002FF4                     STR_7:
   625   002FF4  4C                 	db	76	;'L'
   626   002FF5  4F                 	db	79	;'O'
   627   002FF6  47                 	db	71	;'G'
   628   002FF7  53                 	db	83	;'S'
   629   002FF8  00                 	db	0
   630   002FF9                     STR_15:
   631   002FF9  0A                 	db	10
   632   002FFA  0D                 	db	13
   633   002FFB  00                 	db	0
   634   002FFC                     STR_9:
   635   002FFC  20                 	db	32
   636   002FFD  20                 	db	32
   637   002FFE  00                 	db	0
   638   002FFF  00                 	db	0	; dummy byte at the end
   639   000000                     
   640                           ; #config settings
   641                           
   642                           	psect	cinit
   643   0021F0                     __pcinit:
   644                           	callstack 0
   645   0021F0                     start_initialization:
   646                           	callstack 0
   647   0021F0                     __initialization:
   648                           	callstack 0
   649                           
   650                           ; Initialize objects allocated to BANK1 (80 bytes)
   651                           ; load TBLPTR registers with __pidataBANK1
   652   0021F0  0E9A               	movlw	low __pidataBANK1
   653   0021F2  6EF6               	movwf	tblptrl,c
   654   0021F4  0E25               	movlw	high __pidataBANK1
   655   0021F6  6EF7               	movwf	tblptrh,c
   656   0021F8  0E00               	movlw	low (__pidataBANK1 shr (0+16))
   657   0021FA  6EF8               	movwf	tblptru,c
   658   0021FC  EE01  F000         	lfsr	0,__pdataBANK1
   659   002200  EE10 F050          	lfsr	1,80
   660   002204                     copy_data0:
   661   002204  0009               	tblrd		*+
   662   002206  CFF5 FFEE          	movff	tablat,postinc0
   663   00220A  50E5               	movf	postdec1,w,c
   664   00220C  50E1               	movf	fsr1l,w,c
   665   00220E  E1FA               	bnz	copy_data0
   666                           
   667                           ; Initialize objects allocated to BANK0 (31 bytes)
   668                           ; load TBLPTR registers with __pidataBANK0
   669   002210  0E74               	movlw	low __pidataBANK0
   670   002212  6EF6               	movwf	tblptrl,c
   671   002214  0E27               	movlw	high __pidataBANK0
   672   002216  6EF7               	movwf	tblptrh,c
   673   002218  0E00               	movlw	low (__pidataBANK0 shr (0+16))
   674   00221A  6EF8               	movwf	tblptru,c
   675   00221C  EE00  F0A8         	lfsr	0,__pdataBANK0
   676   002220  EE10 F01F          	lfsr	1,31
   677   002224                     copy_data1:
   678   002224  0009               	tblrd		*+
   679   002226  CFF5 FFEE          	movff	tablat,postinc0
   680   00222A  50E5               	movf	postdec1,w,c
   681   00222C  50E1               	movf	fsr1l,w,c
   682   00222E  E1FA               	bnz	copy_data1
   683                           
   684                           ; Initialize objects allocated to COMRAM (2 bytes)
   685                           ; load TBLPTR registers with __pidataCOMRAM
   686   002230  0E84               	movlw	low __pidataCOMRAM
   687   002232  6EF6               	movwf	tblptrl,c
   688   002234  0E28               	movlw	high __pidataCOMRAM
   689   002236  6EF7               	movwf	tblptrh,c
   690   002238  0E00               	movlw	low (__pidataCOMRAM shr (0+16))
   691   00223A  6EF8               	movwf	tblptru,c
   692   00223C  0009               	tblrd		*+	;fetch initializer
   693   00223E  CFF5 F05D          	movff	tablat,__pdataCOMRAM
   694   002242  0009               	tblrd		*+	;fetch initializer
   695   002244  CFF5 F05E          	movff	tablat,__pdataCOMRAM+1
   696                           
   697                           ; Clear objects allocated to BANK0 (72 bytes)
   698   002248  EE00  F060         	lfsr	0,__pbssBANK0
   699   00224C  0E48               	movlw	72
   700   00224E                     clear_0:
   701   00224E  6AEE               	clrf	postinc0,c
   702   002250  06E8               	decf	wreg,f,c
   703   002252  E1FD               	bnz	clear_0
   704                           
   705                           ; Clear objects allocated to COMRAM (31 bytes)
   706   002254  EE00  F03E         	lfsr	0,__pbssCOMRAM
   707   002258  0E1F               	movlw	31
   708   00225A                     clear_1:
   709   00225A  6AEE               	clrf	postinc0,c
   710   00225C  06E8               	decf	wreg,f,c
   711   00225E  E1FD               	bnz	clear_1
   712   002260                     end_of_initialization:
   713                           	callstack 0
   714   002260                     __end_of__initialization:
   715                           	callstack 0
   716   002260  905F               	bcf	int$flags,0,c	;clear compiler interrupt flag (level 1)
   717   002262  925F               	bcf	int$flags,1,c	;clear compiler interrupt flag (level 2)
   718   002264  0E00               	movlw	low (__Lmediumconst shr (0+16))
   719   002266  6EF8               	movwf	tblptru,c
   720   002268  0100               	movlb	0
   721   00226A  EFA8  F007         	goto	_main	;jump to C main() function
   722                           
   723                           	psect	bssCOMRAM
   724   00003E                     __pbssCOMRAM:
   725                           	callstack 0
   726   00003E                     _delay1:
   727                           	callstack 0
   728   00003E                     	ds	4
   729   000042                     _delay:
   730                           	callstack 0
   731   000042                     	ds	4
   732   000046                     _time_field:
   733                           	callstack 0
   734   000046                     	ds	2
   735   000048                     _no_event:
   736                           	callstack 0
   737   000048                     	ds	2
   738   00004A                     _main_count:
   739                           	callstack 0
   740   00004A                     	ds	2
   741   00004C                     _main_flag:
   742                           	callstack 0
   743   00004C                     	ds	2
   744   00004E                     _star_flag:
   745                           	callstack 0
   746   00004E                     	ds	2
   747   000050                     _speed_val:
   748                           	callstack 0
   749   000050                     	ds	2
   750   000052                     _i:
   751                           	callstack 0
   752   000052                     	ds	2
   753   000054                     read_switches@key:
   754                           	callstack 0
   755   000054                     	ds	1
   756   000055                     _t:
   757                           	callstack 0
   758   000055                     	ds	1
   759   000056                     _add:
   760                           	callstack 0
   761   000056                     	ds	1
   762   000057                     _log_count:
   763                           	callstack 0
   764   000057                     	ds	1
   765   000058                     _count1:
   766                           	callstack 0
   767   000058                     	ds	1
   768   000059                     _count:
   769                           	callstack 0
   770   000059                     	ds	1
   771   00005A                     _data:
   772                           	callstack 0
   773   00005A                     	ds	1
   774   00005B                     _addr:
   775                           	callstack 0
   776   00005B                     	ds	1
   777   00005C                     _key:
   778                           	callstack 0
   779   00005C                     	ds	1
   780                           
   781                           	psect	dataCOMRAM
   782   00005D                     __pdataCOMRAM:
   783                           	callstack 0
   784   00005D                     _sec:
   785                           	callstack 0
   786   00005D                     	ds	2
   787                           
   788                           	psect	bssBANK0
   789   000060                     __pbssBANK0:
   790                           	callstack 0
   791   000060                     _edit_time:
   792                           	callstack 0
   793   000060                     	ds	9
   794   000069                     _delay3:
   795                           	callstack 0
   796   000069                     	ds	4
   797   00006D                     _delay2:
   798                           	callstack 0
   799   00006D                     	ds	4
   800   000071                     _clock_reg:
   801                           	callstack 0
   802   000071                     	ds	3
   803   000074                     isr@count:
   804                           	callstack 0
   805   000074                     	ds	2
   806   000076                     _secs:
   807                           	callstack 0
   808   000076                     	ds	2
   809   000078                     _min:
   810                           	callstack 0
   811   000078                     	ds	2
   812   00007A                     _hr:
   813                           	callstack 0
   814   00007A                     	ds	2
   815   00007C                     _line_count:
   816                           	callstack 0
   817   00007C                     	ds	2
   818   00007E                     _sec_flag:
   819                           	callstack 0
   820   00007E                     	ds	2
   821   000080                     _line1:
   822                           	callstack 0
   823   000080                     	ds	2
   824   000082                     _line:
   825                           	callstack 0
   826   000082                     	ds	2
   827   000084                     _pass:
   828                           	callstack 0
   829   000084                     	ds	2
   830   000086                     _pass_flag:
   831                           	callstack 0
   832   000086                     	ds	2
   833   000088                     _menu_flag:
   834                           	callstack 0
   835   000088                     	ds	2
   836   00008A                     _key_flag:
   837                           	callstack 0
   838   00008A                     	ds	2
   839   00008C                     _event_flag:
   840                           	callstack 0
   841   00008C                     	ds	2
   842   00008E                     _tok:
   843                           	callstack 0
   844   00008E                     	ds	1
   845   00008F                     _address:
   846                           	callstack 0
   847   00008F                     	ds	1
   848   000090                     _time:
   849                           	callstack 0
   850   000090                     	ds	9
   851   000099                     _re_usr_pass:
   852                           	callstack 0
   853   000099                     	ds	5
   854   00009E                     _usr_pass:
   855                           	callstack 0
   856   00009E                     	ds	5
   857   0000A3                     _org_pass:
   858                           	callstack 0
   859   0000A3                     	ds	5
   860                           
   861                           	psect	dataBANK0
   862   0000A8                     __pdataBANK0:
   863                           	callstack 0
   864   0000A8                     authorisation@once:
   865                           	callstack 0
   866   0000A8                     	ds	2
   867   0000AA                     _flag:
   868                           	callstack 0
   869   0000AA                     	ds	2
   870   0000AC                     _attempt:
   871                           	callstack 0
   872   0000AC                     	ds	2
   873   0000AE                     read_switches@once:
   874                           	callstack 0
   875   0000AE                     	ds	1
   876   0000AF                     _gear:
   877                           	callstack 0
   878   0000AF                     	ds	24
   879                           
   880                           	psect	dataBANK1
   881   000100                     __pdataBANK1:
   882                           	callstack 0
   883   000100                     _menu:
   884                           	callstack 0
   885   000100                     	ds	80
   886                           
   887                           	psect	cstackCOMRAM
   888   000001                     __pcstackCOMRAM:
   889                           	callstack 0
   890   000001                     ?_strcmp:
   891                           	callstack 0
   892   000001                     ?_read_adc:
   893                           	callstack 0
   894   000001                     ?___lwdiv:
   895                           	callstack 0
   896   000001                     read_switches@detection_type:
   897                           	callstack 0
   898   000001                     clcd_write@control_bit:
   899                           	callstack 0
   900   000001                     i2c_write@data:
   901                           	callstack 0
   902   000001                     putch@byte:
   903                           	callstack 0
   904   000001                     strcmp@l:
   905                           	callstack 0
   906   000001                     ___lwdiv@dividend:
   907                           	callstack 0
   908                           
   909                           ; 2 bytes @ 0x0
   910   000001                     	ds	1
   911   000002                     clcd_write@byte:
   912                           	callstack 0
   913   000002                     read_24c02@address:
   914                           	callstack 0
   915   000002                     write_ds1307@data:
   916                           	callstack 0
   917   000002                     read_ds1307@address:
   918                           	callstack 0
   919   000002                     strcmp@r:
   920                           	callstack 0
   921   000002                     puts@s:
   922                           	callstack 0
   923                           
   924                           ; 2 bytes @ 0x1
   925   000002                     	ds	1
   926   000003                     ??_strcmp:
   927   000003                     ??_read_adc:
   928   000003                     ??_init_clcd:
   929   000003                     read_24c02@data:
   930                           	callstack 0
   931   000003                     write_ds1307@address:
   932                           	callstack 0
   933   000003                     read_ds1307@data:
   934                           	callstack 0
   935   000003                     clcd_print@data:
   936                           	callstack 0
   937   000003                     open_option@num:
   938                           	callstack 0
   939   000003                     ___lwdiv@divisor:
   940                           	callstack 0
   941                           
   942                           ; 2 bytes @ 0x2
   943   000003                     	ds	1
   944   000004                     init_ds1307@dummy:
   945                           	callstack 0
   946                           
   947                           ; 1 bytes @ 0x3
   948   000004                     	ds	1
   949   000005                     ??_open_option:
   950   000005                     clcd_print@addr:
   951                           	callstack 0
   952   000005                     read_adc@reg_val:
   953                           	callstack 0
   954   000005                     init_config@i:
   955                           	callstack 0
   956   000005                     ___lwdiv@quotient:
   957                           	callstack 0
   958                           
   959                           ; 2 bytes @ 0x4
   960   000005                     	ds	1
   961   000006                     clear_log@i:
   962                           	callstack 0
   963   000006                     download_log@arr:
   964                           	callstack 0
   965                           
   966                           ; 17 bytes @ 0x5
   967   000006                     	ds	1
   968   000007                     read_adc@channel:
   969                           	callstack 0
   970   000007                     ___lwdiv@counter:
   971                           	callstack 0
   972                           
   973                           ; 1 bytes @ 0x6
   974   000007                     	ds	1
   975   000008                     ?___lwmod:
   976                           	callstack 0
   977   000008                     ?___xxtofl:
   978                           	callstack 0
   979   000008                     clear_log@i_696:
   980                           	callstack 0
   981   000008                     ___lwmod@dividend:
   982                           	callstack 0
   983   000008                     ___xxtofl@val:
   984                           	callstack 0
   985                           
   986                           ; 4 bytes @ 0x7
   987   000008                     	ds	2
   988   00000A                     ___lwmod@divisor:
   989                           	callstack 0
   990                           
   991                           ; 2 bytes @ 0x9
   992   00000A                     	ds	2
   993   00000C                     ??___xxtofl:
   994   00000C                     ___lwmod@counter:
   995                           	callstack 0
   996                           
   997                           ; 1 bytes @ 0xB
   998   00000C                     	ds	1
   999   00000D                     clcd_putch@addr:
  1000                           	callstack 0
  1001   00000D                     write_24c02@data:
  1002                           	callstack 0
  1003                           
  1004                           ; 1 bytes @ 0xC
  1005   00000D                     	ds	1
  1006   00000E                     clcd_putch@data:
  1007                           	callstack 0
  1008   00000E                     write_24c02@address:
  1009                           	callstack 0
  1010                           
  1011                           ; 1 bytes @ 0xD
  1012   00000E                     	ds	1
  1013   00000F                     ??_disp_menu:
  1014   00000F                     ??_view_log:
  1015   00000F                     ??_set_time:
  1016   00000F                     write_24c02@i:
  1017                           	callstack 0
  1018   00000F                     authorisation@usr_pass:
  1019                           	callstack 0
  1020                           
  1021                           ; 5 bytes @ 0xE
  1022   00000F                     	ds	1
  1023   000010                     ___xxtofl@sign:
  1024                           	callstack 0
  1025   000010                     set_time@i:
  1026                           	callstack 0
  1027                           
  1028                           ; 2 bytes @ 0xF
  1029   000010                     	ds	1
  1030   000011                     ___xxtofl@exp:
  1031                           	callstack 0
  1032   000011                     view_log@i:
  1033                           	callstack 0
  1034                           
  1035                           ; 2 bytes @ 0x10
  1036   000011                     	ds	1
  1037   000012                     set_time@i_702:
  1038                           	callstack 0
  1039   000012                     ___xxtofl@arg:
  1040                           	callstack 0
  1041                           
  1042                           ; 4 bytes @ 0x11
  1043   000012                     	ds	1
  1044   000013                     change_pass@address:
  1045                           	callstack 0
  1046   000013                     event_capture@j:
  1047                           	callstack 0
  1048   000013                     view_log@view_addr:
  1049                           	callstack 0
  1050                           
  1051                           ; 2 bytes @ 0x12
  1052   000013                     	ds	1
  1053   000014                     authorisation@i:
  1054                           	callstack 0
  1055   000014                     change_pass@i_709:
  1056                           	callstack 0
  1057                           
  1058                           ; 2 bytes @ 0x13
  1059   000014                     	ds	1
  1060   000015                     view_log@j:
  1061                           	callstack 0
  1062                           
  1063                           ; 2 bytes @ 0x14
  1064   000015                     	ds	1
  1065   000016                     ?___fldiv:
  1066                           	callstack 0
  1067   000016                     change_pass@i_712:
  1068                           	callstack 0
  1069   000016                     ___fldiv@b:
  1070                           	callstack 0
  1071                           
  1072                           ; 4 bytes @ 0x15
  1073   000016                     	ds	1
  1074   000017                     download_log@i_690:
  1075                           	callstack 0
  1076                           
  1077                           ; 4 bytes @ 0x16
  1078   000017                     	ds	1
  1079   000018                     change_pass@i:
  1080                           	callstack 0
  1081                           
  1082                           ; 2 bytes @ 0x17
  1083   000018                     	ds	2
  1084   00001A                     ___fldiv@a:
  1085                           	callstack 0
  1086                           
  1087                           ; 4 bytes @ 0x19
  1088   00001A                     	ds	1
  1089   00001B                     download_log@i:
  1090                           	callstack 0
  1091                           
  1092                           ; 2 bytes @ 0x1A
  1093   00001B                     	ds	2
  1094   00001D                     download_log@i_683:
  1095                           	callstack 0
  1096                           
  1097                           ; 2 bytes @ 0x1C
  1098   00001D                     	ds	1
  1099   00001E                     ??___fldiv:
  1100                           
  1101                           ; 1 bytes @ 0x1D
  1102   00001E                     	ds	1
  1103   00001F                     download_log@i_686:
  1104                           	callstack 0
  1105                           
  1106                           ; 2 bytes @ 0x1E
  1107   00001F                     	ds	2
  1108   000021                     download_log@i_691:
  1109                           	callstack 0
  1110                           
  1111                           ; 2 bytes @ 0x20
  1112   000021                     	ds	1
  1113   000022                     ___fldiv@rem:
  1114                           	callstack 0
  1115                           
  1116                           ; 4 bytes @ 0x21
  1117   000022                     	ds	1
  1118   000023                     download_log@j:
  1119                           	callstack 0
  1120                           
  1121                           ; 2 bytes @ 0x22
  1122   000023                     	ds	2
  1123   000025                     download_log@k:
  1124                           	callstack 0
  1125                           
  1126                           ; 2 bytes @ 0x24
  1127   000025                     	ds	1
  1128   000026                     ___fldiv@sign:
  1129                           	callstack 0
  1130                           
  1131                           ; 1 bytes @ 0x25
  1132   000026                     	ds	1
  1133   000027                     ___fldiv@new_exp:
  1134                           	callstack 0
  1135                           
  1136                           ; 2 bytes @ 0x26
  1137   000027                     	ds	2
  1138   000029                     ___fldiv@grs:
  1139                           	callstack 0
  1140                           
  1141                           ; 4 bytes @ 0x28
  1142   000029                     	ds	4
  1143   00002D                     ___fldiv@bexp:
  1144                           	callstack 0
  1145                           
  1146                           ; 1 bytes @ 0x2C
  1147   00002D                     	ds	1
  1148   00002E                     ___fldiv@aexp:
  1149                           	callstack 0
  1150                           
  1151                           ; 1 bytes @ 0x2D
  1152   00002E                     	ds	1
  1153   00002F                     ?___fltol:
  1154                           	callstack 0
  1155   00002F                     ___fltol@f1:
  1156                           	callstack 0
  1157                           
  1158                           ; 4 bytes @ 0x2E
  1159   00002F                     	ds	4
  1160   000033                     ??___fltol:
  1161                           
  1162                           ; 1 bytes @ 0x32
  1163   000033                     	ds	4
  1164   000037                     ___fltol@sign1:
  1165                           	callstack 0
  1166                           
  1167                           ; 1 bytes @ 0x36
  1168   000037                     	ds	1
  1169   000038                     ___fltol@exp1:
  1170                           	callstack 0
  1171                           
  1172                           ; 1 bytes @ 0x37
  1173   000038                     	ds	1
  1174   000039                     ??_dashboard:
  1175                           
  1176                           ; 1 bytes @ 0x38
  1177   000039                     	ds	1
  1178   00003A                     ??_main:
  1179                           
  1180                           ; 1 bytes @ 0x39
  1181   00003A                     	ds	4
  1182                           
  1183 ;;
  1184 ;;Main: autosize = 0, tempsize = 4, incstack = 0, save=0
  1185 ;;
  1186 ;; *************** function _main *****************
  1187 ;; Defined at:
  1188 ;;		line 30 in file "main.c"
  1189 ;; Parameters:    Size  Location     Type
  1190 ;;		None
  1191 ;; Auto vars:     Size  Location     Type
  1192 ;;		None
  1193 ;; Return value:  Size  Location     Type
  1194 ;;                  1    wreg      void 
  1195 ;; Registers used:
  1196 ;;		wreg, fsr0l, fsr0h, fsr1l, fsr1h, fsr2l, fsr2h, status,2, status,0, tblptrl, tblptrh, tblptru, prodl, prodh, cstack
  1197 ;; Tracked objects:
  1198 ;;		On entry : 0/0
  1199 ;;		On exit  : 0/0
  1200 ;;		Unchanged: 0/0
  1201 ;; Data sizes:     COMRAM   BANK0   BANK1   BANK2   BANK3   BANK4   BANK5
  1202 ;;      Params:         0       0       0       0       0       0       0
  1203 ;;      Locals:         0       0       0       0       0       0       0
  1204 ;;      Temps:          4       0       0       0       0       0       0
  1205 ;;      Totals:         4       0       0       0       0       0       0
  1206 ;;Total ram usage:        4 bytes
  1207 ;; Hardware stack levels required when called: 7
  1208 ;; This function calls:
  1209 ;;		_authorisation
  1210 ;;		_change_pass
  1211 ;;		_clcd_write
  1212 ;;		_clear_log
  1213 ;;		_dashboard
  1214 ;;		_disp_menu
  1215 ;;		_download_log
  1216 ;;		_init_config
  1217 ;;		_read_switches
  1218 ;;		_set_time
  1219 ;;		_view_log
  1220 ;; This function is called by:
  1221 ;;		Startup code after reset
  1222 ;; This function uses a non-reentrant model
  1223 ;;
  1224                           
  1225                           	psect	text0
  1226   000F50                     __ptext0:
  1227                           	callstack 0
  1228   000F50                     _main:
  1229                           	callstack 24
  1230   000F50                     
  1231                           ;main.c: 32:     init_config();
  1232   000F50  EC16  F012         	call	_init_config	;wreg free
  1233   000F54                     l5409:
  1234                           
  1235                           ;main.c: 33:     dashboard();
  1236   000F54  EC62  F00B         	call	_dashboard	;wreg free
  1237   000F58                     l5411:
  1238                           
  1239                           ;main.c: 35:     {;main.c: 36:         key=read_switches(1);
  1240   000F58  0E01               	movlw	1
  1241   000F5A  EC37  F011         	call	_read_switches
  1242   000F5E  6E5C               	movwf	_key^0,c
  1243                           
  1244                           ;main.c: 37:         while(key==12 && main_flag>0)
  1245   000F60  EFE0  F007         	goto	l5421
  1246   000F64                     l5413:
  1247                           
  1248                           ;main.c: 38:         {;main.c: 39:             key = read_switches(0);
  1249   000F64  0E00               	movlw	0
  1250   000F66  EC37  F011         	call	_read_switches
  1251   000F6A  6E5C               	movwf	_key^0,c
  1252   000F6C                     
  1253                           ;main.c: 41:             if(delay++ >= 50000)
  1254   000F6C  C042  F03A         	movff	_delay,??_main
  1255   000F70  C043  F03B         	movff	_delay+1,??_main+1
  1256   000F74  C044  F03C         	movff	_delay+2,??_main+2
  1257   000F78  C045  F03D         	movff	_delay+3,??_main+3
  1258   000F7C  2A42               	incf	_delay^0,f,c
  1259   000F7E  0E00               	movlw	0
  1260   000F80  2243               	addwfc	(_delay+1)^0,f,c
  1261   000F82  2244               	addwfc	(_delay+2)^0,f,c
  1262   000F84  2245               	addwfc	(_delay+3)^0,f,c
  1263   000F86  503D               	movf	(??_main+3)^0,w,c
  1264   000F88  103C               	iorwf	(??_main+2)^0,w,c
  1265   000F8A  E10B               	bnz	u4200
  1266   000F8C  0E50               	movlw	80
  1267   000F8E  5C3A               	subwf	??_main^0,w,c
  1268   000F90  0EC3               	movlw	195
  1269   000F92  583B               	subwfb	(??_main+1)^0,w,c
  1270   000F94  A0D8               	btfss	status,0,c
  1271   000F96  EFCF  F007         	goto	u4201
  1272   000F9A  EFD1  F007         	goto	u4200
  1273   000F9E                     u4201:
  1274   000F9E  EFE0  F007         	goto	l5421
  1275   000FA2                     u4200:
  1276   000FA2                     
  1277                           ;main.c: 42:             {;main.c: 43:                 delay=0;
  1278   000FA2  0E00               	movlw	0
  1279   000FA4  6E42               	movwf	_delay^0,c
  1280   000FA6  0E00               	movlw	0
  1281   000FA8  6E43               	movwf	(_delay+1)^0,c
  1282   000FAA  0E00               	movlw	0
  1283   000FAC  6E44               	movwf	(_delay+2)^0,c
  1284   000FAE  0E00               	movlw	0
  1285   000FB0  6E45               	movwf	(_delay+3)^0,c
  1286                           
  1287                           ;main.c: 44:                 key=14;
  1288   000FB2  0E0E               	movlw	14
  1289   000FB4  6E5C               	movwf	_key^0,c
  1290   000FB6                     
  1291                           ;main.c: 45:                 clcd_write(0x01, 0);
  1292   000FB6  0E00               	movlw	0
  1293   000FB8  6E01               	movwf	clcd_write@control_bit^0,c
  1294   000FBA  0E01               	movlw	1
  1295   000FBC  EC63  F013         	call	_clcd_write
  1296   000FC0                     l5421:
  1297                           
  1298                           ;main.c: 37:         while(key==12 && main_flag>0)
  1299   000FC0  0E0C               	movlw	12
  1300   000FC2  185C               	xorwf	_key^0,w,c
  1301   000FC4  A4D8               	btfss	status,2,c
  1302   000FC6  EFE7  F007         	goto	u4211
  1303   000FCA  EFE9  F007         	goto	u4210
  1304   000FCE                     u4211:
  1305   000FCE  EFF2  F007         	goto	l5425
  1306   000FD2                     u4210:
  1307   000FD2  504C               	movf	_main_flag^0,w,c
  1308   000FD4  104D               	iorwf	(_main_flag+1)^0,w,c
  1309   000FD6  A4D8               	btfss	status,2,c
  1310   000FD8  EFF0  F007         	goto	u4221
  1311   000FDC  EFF2  F007         	goto	u4220
  1312   000FE0                     u4221:
  1313   000FE0  EFB2  F007         	goto	l5413
  1314   000FE4                     u4220:
  1315   000FE4                     l5425:
  1316                           
  1317                           ;main.c: 48:         if(delay>500 && delay<50000)
  1318   000FE4  5045               	movf	(_delay+3)^0,w,c
  1319   000FE6  1044               	iorwf	(_delay+2)^0,w,c
  1320   000FE8  E10B               	bnz	u4230
  1321   000FEA  0EF5               	movlw	245
  1322   000FEC  5C42               	subwf	_delay^0,w,c
  1323   000FEE  0E01               	movlw	1
  1324   000FF0  5843               	subwfb	(_delay+1)^0,w,c
  1325   000FF2  A0D8               	btfss	status,0,c
  1326   000FF4  EFFE  F007         	goto	u4231
  1327   000FF8  EF00  F008         	goto	u4230
  1328   000FFC                     u4231:
  1329   000FFC  EF48  F008         	goto	l5439
  1330   001000                     u4230:
  1331   001000  5045               	movf	(_delay+3)^0,w,c
  1332   001002  1044               	iorwf	(_delay+2)^0,w,c
  1333   001004  E109               	bnz	u4241
  1334   001006  0E50               	movlw	80
  1335   001008  5C42               	subwf	_delay^0,w,c
  1336   00100A  0EC3               	movlw	195
  1337   00100C  5843               	subwfb	(_delay+1)^0,w,c
  1338   00100E  B0D8               	btfsc	status,0,c
  1339   001010  EF0C  F008         	goto	u4241
  1340   001014  EF0E  F008         	goto	u4240
  1341   001018                     u4241:
  1342   001018  EF48  F008         	goto	l5439
  1343   00101C                     u4240:
  1344   00101C                     
  1345                           ;main.c: 49:         {;main.c: 50:             key=12;
  1346   00101C  0E0C               	movlw	12
  1347   00101E  6E5C               	movwf	_key^0,c
  1348                           
  1349                           ;main.c: 51:             delay=0;
  1350   001020  0E00               	movlw	0
  1351   001022  6E42               	movwf	_delay^0,c
  1352   001024  0E00               	movlw	0
  1353   001026  6E43               	movwf	(_delay+1)^0,c
  1354   001028  0E00               	movlw	0
  1355   00102A  6E44               	movwf	(_delay+2)^0,c
  1356   00102C  0E00               	movlw	0
  1357   00102E  6E45               	movwf	(_delay+3)^0,c
  1358   001030  EF48  F008         	goto	l5439
  1359   001034                     l5431:
  1360                           
  1361                           ;main.c: 54:         {;main.c: 55:             key = read_switches(0);
  1362   001034  0E00               	movlw	0
  1363   001036  EC37  F011         	call	_read_switches
  1364   00103A  6E5C               	movwf	_key^0,c
  1365   00103C                     
  1366                           ;main.c: 56:             if(delay++ >= 50000)
  1367   00103C  C042  F03A         	movff	_delay,??_main
  1368   001040  C043  F03B         	movff	_delay+1,??_main+1
  1369   001044  C044  F03C         	movff	_delay+2,??_main+2
  1370   001048  C045  F03D         	movff	_delay+3,??_main+3
  1371   00104C  2A42               	incf	_delay^0,f,c
  1372   00104E  0E00               	movlw	0
  1373   001050  2243               	addwfc	(_delay+1)^0,f,c
  1374   001052  2244               	addwfc	(_delay+2)^0,f,c
  1375   001054  2245               	addwfc	(_delay+3)^0,f,c
  1376   001056  503D               	movf	(??_main+3)^0,w,c
  1377   001058  103C               	iorwf	(??_main+2)^0,w,c
  1378   00105A  E10B               	bnz	u4250
  1379   00105C  0E50               	movlw	80
  1380   00105E  5C3A               	subwf	??_main^0,w,c
  1381   001060  0EC3               	movlw	195
  1382   001062  583B               	subwfb	(??_main+1)^0,w,c
  1383   001064  A0D8               	btfss	status,0,c
  1384   001066  EF37  F008         	goto	u4251
  1385   00106A  EF39  F008         	goto	u4250
  1386   00106E                     u4251:
  1387   00106E  EF48  F008         	goto	l5439
  1388   001072                     u4250:
  1389   001072                     
  1390                           ;main.c: 57:             {;main.c: 58:                 delay=0;
  1391   001072  0E00               	movlw	0
  1392   001074  6E42               	movwf	_delay^0,c
  1393   001076  0E00               	movlw	0
  1394   001078  6E43               	movwf	(_delay+1)^0,c
  1395   00107A  0E00               	movlw	0
  1396   00107C  6E44               	movwf	(_delay+2)^0,c
  1397   00107E  0E00               	movlw	0
  1398   001080  6E45               	movwf	(_delay+3)^0,c
  1399                           
  1400                           ;main.c: 59:                 key=13;
  1401   001082  0E0D               	movlw	13
  1402   001084  6E5C               	movwf	_key^0,c
  1403   001086                     
  1404                           ;main.c: 60:                 clcd_write(0x01, 0);
  1405   001086  0E00               	movlw	0
  1406   001088  6E01               	movwf	clcd_write@control_bit^0,c
  1407   00108A  0E01               	movlw	1
  1408   00108C  EC63  F013         	call	_clcd_write
  1409   001090                     l5439:
  1410                           
  1411                           ;main.c: 53:         while(key == 11 && main_flag>0)
  1412   001090  0E0B               	movlw	11
  1413   001092  185C               	xorwf	_key^0,w,c
  1414   001094  A4D8               	btfss	status,2,c
  1415   001096  EF4F  F008         	goto	u4261
  1416   00109A  EF51  F008         	goto	u4260
  1417   00109E                     u4261:
  1418   00109E  EF5A  F008         	goto	l5443
  1419   0010A2                     u4260:
  1420   0010A2  504C               	movf	_main_flag^0,w,c
  1421   0010A4  104D               	iorwf	(_main_flag+1)^0,w,c
  1422   0010A6  A4D8               	btfss	status,2,c
  1423   0010A8  EF58  F008         	goto	u4271
  1424   0010AC  EF5A  F008         	goto	u4270
  1425   0010B0                     u4271:
  1426   0010B0  EF1A  F008         	goto	l5431
  1427   0010B4                     u4270:
  1428   0010B4                     l5443:
  1429                           
  1430                           ;main.c: 63:         if(delay>500 && delay<50000)
  1431   0010B4  5045               	movf	(_delay+3)^0,w,c
  1432   0010B6  1044               	iorwf	(_delay+2)^0,w,c
  1433   0010B8  E10B               	bnz	u4280
  1434   0010BA  0EF5               	movlw	245
  1435   0010BC  5C42               	subwf	_delay^0,w,c
  1436   0010BE  0E01               	movlw	1
  1437   0010C0  5843               	subwfb	(_delay+1)^0,w,c
  1438   0010C2  A0D8               	btfss	status,0,c
  1439   0010C4  EF66  F008         	goto	u4281
  1440   0010C8  EF68  F008         	goto	u4280
  1441   0010CC                     u4281:
  1442   0010CC  EF80  F008         	goto	l5449
  1443   0010D0                     u4280:
  1444   0010D0  5045               	movf	(_delay+3)^0,w,c
  1445   0010D2  1044               	iorwf	(_delay+2)^0,w,c
  1446   0010D4  E109               	bnz	u4291
  1447   0010D6  0E50               	movlw	80
  1448   0010D8  5C42               	subwf	_delay^0,w,c
  1449   0010DA  0EC3               	movlw	195
  1450   0010DC  5843               	subwfb	(_delay+1)^0,w,c
  1451   0010DE  B0D8               	btfsc	status,0,c
  1452   0010E0  EF74  F008         	goto	u4291
  1453   0010E4  EF76  F008         	goto	u4290
  1454   0010E8                     u4291:
  1455   0010E8  EF80  F008         	goto	l5449
  1456   0010EC                     u4290:
  1457   0010EC                     
  1458                           ;main.c: 64:         {;main.c: 65:             key=11;
  1459   0010EC  0E0B               	movlw	11
  1460   0010EE  6E5C               	movwf	_key^0,c
  1461                           
  1462                           ;main.c: 66:             delay=0;
  1463   0010F0  0E00               	movlw	0
  1464   0010F2  6E42               	movwf	_delay^0,c
  1465   0010F4  0E00               	movlw	0
  1466   0010F6  6E43               	movwf	(_delay+1)^0,c
  1467   0010F8  0E00               	movlw	0
  1468   0010FA  6E44               	movwf	(_delay+2)^0,c
  1469   0010FC  0E00               	movlw	0
  1470   0010FE  6E45               	movwf	(_delay+3)^0,c
  1471   001100                     l5449:
  1472                           
  1473                           ;main.c: 68:         if(key==11 && key_flag==0 && main_flag==0)
  1474   001100  0E0B               	movlw	11
  1475   001102  185C               	xorwf	_key^0,w,c
  1476   001104  A4D8               	btfss	status,2,c
  1477   001106  EF87  F008         	goto	u4301
  1478   00110A  EF89  F008         	goto	u4300
  1479   00110E                     u4301:
  1480   00110E  EFA6  F008         	goto	l5461
  1481   001112                     u4300:
  1482   001112  0100               	movlb	0	; () banked
  1483   001114  518A               	movf	_key_flag& (0+255),w,b
  1484   001116  118B               	iorwf	(_key_flag+1)& (0+255),w,b
  1485   001118  A4D8               	btfss	status,2,c
  1486   00111A  EF91  F008         	goto	u4311
  1487   00111E  EF93  F008         	goto	u4310
  1488   001122                     u4311:
  1489   001122  EFA6  F008         	goto	l5461
  1490   001126                     u4310:
  1491   001126                     
  1492                           ; BSR set to: 0
  1493   001126  504C               	movf	_main_flag^0,w,c
  1494   001128  104D               	iorwf	(_main_flag+1)^0,w,c
  1495   00112A  A4D8               	btfss	status,2,c
  1496   00112C  EF9A  F008         	goto	u4321
  1497   001130  EF9C  F008         	goto	u4320
  1498   001134                     u4321:
  1499   001134  EFA6  F008         	goto	l5461
  1500   001138                     u4320:
  1501   001138                     
  1502                           ; BSR set to: 0
  1503                           ;main.c: 69:         {;main.c: 70:             key_flag=1;
  1504   001138  0E00               	movlw	0
  1505   00113A  6F8B               	movwf	(_key_flag+1)& (0+255),b
  1506   00113C  0E01               	movlw	1
  1507   00113E  6F8A               	movwf	_key_flag& (0+255),b
  1508   001140                     
  1509                           ; BSR set to: 0
  1510                           ;main.c: 71:             key=0xff;
  1511   001140  685C               	setf	_key^0,c
  1512   001142                     
  1513                           ; BSR set to: 0
  1514                           ;main.c: 72:             clcd_write(0x01, 0);
  1515   001142  0E00               	movlw	0
  1516   001144  6E01               	movwf	clcd_write@control_bit^0,c
  1517   001146  0E01               	movlw	1
  1518   001148  EC63  F013         	call	_clcd_write
  1519   00114C                     l5461:
  1520                           
  1521                           ;main.c: 74:         if(key_flag==1)
  1522   00114C  0100               	movlb	0	; () banked
  1523   00114E  058A               	decf	_key_flag& (0+255),w,b
  1524   001150  118B               	iorwf	(_key_flag+1)& (0+255),w,b
  1525   001152  A4D8               	btfss	status,2,c
  1526   001154  EFAE  F008         	goto	u4331
  1527   001158  EFB0  F008         	goto	u4330
  1528   00115C                     u4331:
  1529   00115C  EFB4  F008         	goto	l5465
  1530   001160                     u4330:
  1531   001160                     
  1532                           ; BSR set to: 0
  1533                           ;main.c: 75:         {;main.c: 76:             authorisation();
  1534   001160  EC01  F006         	call	_authorisation	;wreg free
  1535                           
  1536                           ;main.c: 77:         }
  1537   001164  EFAC  F007         	goto	l5411
  1538   001168                     l5465:
  1539                           
  1540                           ; BSR set to: 0
  1541   001168  504C               	movf	_main_flag^0,w,c
  1542   00116A  104D               	iorwf	(_main_flag+1)^0,w,c
  1543   00116C  B4D8               	btfsc	status,2,c
  1544   00116E  EFBB  F008         	goto	u4341
  1545   001172  EFBD  F008         	goto	u4340
  1546   001176                     u4341:
  1547   001176  EFAA  F007         	goto	l5409
  1548   00117A                     u4340:
  1549   00117A                     
  1550                           ; BSR set to: 0
  1551                           ;main.c: 79:         {;main.c: 81:             if(main_flag==1)
  1552   00117A  044C               	decf	_main_flag^0,w,c
  1553   00117C  104D               	iorwf	(_main_flag+1)^0,w,c
  1554   00117E  A4D8               	btfss	status,2,c
  1555   001180  EFC4  F008         	goto	u4351
  1556   001184  EFC6  F008         	goto	u4350
  1557   001188                     u4351:
  1558   001188  EFCA  F008         	goto	l5471
  1559   00118C                     u4350:
  1560   00118C                     
  1561                           ; BSR set to: 0
  1562                           ;main.c: 82:             {;main.c: 83:                 disp_menu();
  1563   00118C  EC67  F00C         	call	_disp_menu	;wreg free
  1564                           
  1565                           ;main.c: 84:             }
  1566   001190  EFAC  F007         	goto	l5411
  1567   001194                     l5471:
  1568                           
  1569                           ; BSR set to: 0
  1570   001194  0E02               	movlw	2
  1571   001196  184C               	xorwf	_main_flag^0,w,c
  1572   001198  104D               	iorwf	(_main_flag+1)^0,w,c
  1573   00119A  A4D8               	btfss	status,2,c
  1574   00119C  EFD2  F008         	goto	u4361
  1575   0011A0  EFD4  F008         	goto	u4360
  1576   0011A4                     u4361:
  1577   0011A4  EFD8  F008         	goto	l5475
  1578   0011A8                     u4360:
  1579   0011A8                     
  1580                           ; BSR set to: 0
  1581                           ;main.c: 86:             {;main.c: 87:                 view_log();
  1582   0011A8  EC49  F00A         	call	_view_log	;wreg free
  1583                           
  1584                           ;main.c: 88:             }
  1585   0011AC  EFAC  F007         	goto	l5411
  1586   0011B0                     l5475:
  1587                           
  1588                           ; BSR set to: 0
  1589   0011B0  0E03               	movlw	3
  1590   0011B2  184C               	xorwf	_main_flag^0,w,c
  1591   0011B4  104D               	iorwf	(_main_flag+1)^0,w,c
  1592   0011B6  A4D8               	btfss	status,2,c
  1593   0011B8  EFE0  F008         	goto	u4371
  1594   0011BC  EFE2  F008         	goto	u4370
  1595   0011C0                     u4371:
  1596   0011C0  EFE6  F008         	goto	l5479
  1597   0011C4                     u4370:
  1598   0011C4                     
  1599                           ; BSR set to: 0
  1600                           ;main.c: 90:             {;main.c: 91:                 download_log();
  1601   0011C4  EC14  F009         	call	_download_log	;wreg free
  1602                           
  1603                           ;main.c: 92:             }
  1604   0011C8  EFAC  F007         	goto	l5411
  1605   0011CC                     l5479:
  1606                           
  1607                           ; BSR set to: 0
  1608   0011CC  0E04               	movlw	4
  1609   0011CE  184C               	xorwf	_main_flag^0,w,c
  1610   0011D0  104D               	iorwf	(_main_flag+1)^0,w,c
  1611   0011D2  A4D8               	btfss	status,2,c
  1612   0011D4  EFEE  F008         	goto	u4381
  1613   0011D8  EFF0  F008         	goto	u4380
  1614   0011DC                     u4381:
  1615   0011DC  EFF4  F008         	goto	l5483
  1616   0011E0                     u4380:
  1617   0011E0                     
  1618                           ; BSR set to: 0
  1619                           ;main.c: 94:             {;main.c: 95:                 clear_log();
  1620   0011E0  EC6E  F010         	call	_clear_log	;wreg free
  1621                           
  1622                           ;main.c: 96:             }
  1623   0011E4  EFAC  F007         	goto	l5411
  1624   0011E8                     l5483:
  1625                           
  1626                           ; BSR set to: 0
  1627   0011E8  0E05               	movlw	5
  1628   0011EA  184C               	xorwf	_main_flag^0,w,c
  1629   0011EC  104D               	iorwf	(_main_flag+1)^0,w,c
  1630   0011EE  A4D8               	btfss	status,2,c
  1631   0011F0  EFFC  F008         	goto	u4391
  1632   0011F4  EFFE  F008         	goto	u4390
  1633   0011F8                     u4391:
  1634   0011F8  EF02  F009         	goto	l5487
  1635   0011FC                     u4390:
  1636   0011FC                     
  1637                           ; BSR set to: 0
  1638                           ;main.c: 98:             {;main.c: 99:                 set_time();
  1639   0011FC  EC09  F000         	call	_set_time	;wreg free
  1640                           
  1641                           ;main.c: 100:             }
  1642   001200  EFAC  F007         	goto	l5411
  1643   001204                     l5487:
  1644                           
  1645                           ; BSR set to: 0
  1646   001204  0E06               	movlw	6
  1647   001206  184C               	xorwf	_main_flag^0,w,c
  1648   001208  104D               	iorwf	(_main_flag+1)^0,w,c
  1649   00120A  A4D8               	btfss	status,2,c
  1650   00120C  EF0A  F009         	goto	u4401
  1651   001210  EF0C  F009         	goto	u4400
  1652   001214                     u4401:
  1653   001214  EF10  F009         	goto	l653
  1654   001218                     u4400:
  1655   001218                     
  1656                           ; BSR set to: 0
  1657                           ;main.c: 102:             {;main.c: 103:                 change_pass();
  1658   001218  EC4A  F002         	call	_change_pass	;wreg free
  1659   00121C  EFAC  F007         	goto	l5411
  1660   001220                     l653:
  1661                           
  1662                           ; BSR set to: 0
  1663   001220  EFAC  F007         	goto	l5411
  1664   001224  EF07  F000         	goto	start
  1665   001228                     __end_of_main:
  1666                           	callstack 0
  1667                           
  1668 ;; *************** function _view_log *****************
  1669 ;; Defined at:
  1670 ;;		line 310 in file "blackbox.c"
  1671 ;; Parameters:    Size  Location     Type
  1672 ;;		None
  1673 ;; Auto vars:     Size  Location     Type
  1674 ;;  j               2   20[COMRAM] int 
  1675 ;;  i               2   16[COMRAM] unsigned int 
  1676 ;;  view_addr       2   18[COMRAM] int 
  1677 ;; Return value:  Size  Location     Type
  1678 ;;                  1    wreg      void 
  1679 ;; Registers used:
  1680 ;;		wreg, fsr0l, fsr0h, status,2, status,0, tblptrl, tblptrh, tblptru, prodl, prodh, cstack
  1681 ;; Tracked objects:
  1682 ;;		On entry : 0/0
  1683 ;;		On exit  : 0/0
  1684 ;;		Unchanged: 0/0
  1685 ;; Data sizes:     COMRAM   BANK0   BANK1   BANK2   BANK3   BANK4   BANK5
  1686 ;;      Params:         0       0       0       0       0       0       0
  1687 ;;      Locals:         6       0       0       0       0       0       0
  1688 ;;      Temps:          2       0       0       0       0       0       0
  1689 ;;      Totals:         8       0       0       0       0       0       0
  1690 ;;Total ram usage:        8 bytes
  1691 ;; Hardware stack levels used: 1
  1692 ;; Hardware stack levels required when called: 5
  1693 ;; This function calls:
  1694 ;;		_clcd_print
  1695 ;;		_clcd_putch
  1696 ;;		_clcd_write
  1697 ;;		_read_24c02
  1698 ;; This function is called by:
  1699 ;;		_main
  1700 ;; This function uses a non-reentrant model
  1701 ;;
  1702                           
  1703                           	psect	text1
  1704   001492                     __ptext1:
  1705                           	callstack 0
  1706   001492                     _view_log:
  1707                           	callstack 25
  1708   001492                     
  1709                           ;blackbox.c: 312:     line1=line;
  1710   001492  C082  F080         	movff	_line,_line1
  1711   001496  C083  F081         	movff	_line+1,_line1+1
  1712   00149A                     
  1713                           ;blackbox.c: 313:     if(line1>9)
  1714   00149A  0100               	movlb	0	; () banked
  1715   00149C  5181               	movf	(_line1+1)& (0+255),w,b
  1716   00149E  E109               	bnz	u3460
  1717   0014A0  0E0A               	movlw	10
  1718   0014A2  5D80               	subwf	_line1& (0+255),w,b
  1719   0014A4  A0D8               	btfss	status,0,c
  1720   0014A6  EF57  F00A         	goto	u3461
  1721   0014AA  EF59  F00A         	goto	u3460
  1722   0014AE                     u3461:
  1723   0014AE  EF5D  F00A         	goto	l4863
  1724   0014B2                     u3460:
  1725   0014B2                     
  1726                           ; BSR set to: 0
  1727                           ;blackbox.c: 314:     {;blackbox.c: 315:         line1=0;
  1728   0014B2  0E00               	movlw	0
  1729   0014B4  6F81               	movwf	(_line1+1)& (0+255),b
  1730   0014B6  0E00               	movlw	0
  1731   0014B8  6F80               	movwf	_line1& (0+255),b
  1732   0014BA                     l4863:
  1733                           
  1734                           ; BSR set to: 0
  1735                           ;blackbox.c: 321:     if(no_event==0)
  1736   0014BA  5048               	movf	_no_event^0,w,c
  1737   0014BC  1049               	iorwf	(_no_event+1)^0,w,c
  1738   0014BE  A4D8               	btfss	status,2,c
  1739   0014C0  EF64  F00A         	goto	u3471
  1740   0014C4  EF66  F00A         	goto	u3470
  1741   0014C8                     u3471:
  1742   0014C8  EF8A  F00A         	goto	l4881
  1743   0014CC                     u3470:
  1744   0014CC                     
  1745                           ; BSR set to: 0
  1746                           ;blackbox.c: 322:     {;blackbox.c: 323:         for(unsigned int i=0;i<4000;i++)
  1747   0014CC  0E00               	movlw	0
  1748   0014CE  6E12               	movwf	(view_log@i+1)^0,c
  1749   0014D0  0E00               	movlw	0
  1750   0014D2  6E11               	movwf	view_log@i^0,c
  1751   0014D4                     l4871:
  1752                           
  1753                           ;blackbox.c: 324:         {;blackbox.c: 325:             clcd_print("No events found",(0
      +                          x80 + (0)));
  1754   0014D4  0E05               	movlw	low STR_6
  1755   0014D6  6E03               	movwf	clcd_print@data^0,c
  1756   0014D8  0E2F               	movlw	high STR_6
  1757   0014DA  6E04               	movwf	(clcd_print@data+1)^0,c
  1758   0014DC  0E80               	movlw	128
  1759   0014DE  6E05               	movwf	clcd_print@addr^0,c
  1760   0014E0  ECAE  F011         	call	_clcd_print	;wreg free
  1761   0014E4                     
  1762                           ;blackbox.c: 326:         }
  1763   0014E4  4A11               	infsnz	view_log@i^0,f,c
  1764   0014E6  2A12               	incf	(view_log@i+1)^0,f,c
  1765   0014E8  0EA0               	movlw	160
  1766   0014EA  5C11               	subwf	view_log@i^0,w,c
  1767   0014EC  0E0F               	movlw	15
  1768   0014EE  5812               	subwfb	(view_log@i+1)^0,w,c
  1769   0014F0  A0D8               	btfss	status,0,c
  1770   0014F2  EF7D  F00A         	goto	u3481
  1771   0014F6  EF7F  F00A         	goto	u3480
  1772   0014FA                     u3481:
  1773   0014FA  EF6A  F00A         	goto	l4871
  1774   0014FE                     u3480:
  1775   0014FE                     
  1776                           ;blackbox.c: 327:         main_flag=1;
  1777   0014FE  0E00               	movlw	0
  1778   001500  6E4D               	movwf	(_main_flag+1)^0,c
  1779   001502  0E01               	movlw	1
  1780   001504  6E4C               	movwf	_main_flag^0,c
  1781   001506                     
  1782                           ;blackbox.c: 328:         clcd_write(0x01, 0);
  1783   001506  0E00               	movlw	0
  1784   001508  6E01               	movwf	clcd_write@control_bit^0,c
  1785   00150A  0E01               	movlw	1
  1786   00150C  EC63  F013         	call	_clcd_write
  1787                           
  1788                           ;blackbox.c: 329:     }
  1789   001510  EF4F  F00B         	goto	l4949
  1790   001514                     l4881:
  1791                           
  1792                           ; BSR set to: 0
  1793                           ;blackbox.c: 331:     {;blackbox.c: 332:         int view_addr = log_count * 10;
  1794   001514  5057               	movf	_log_count^0,w,c
  1795   001516  0D0A               	mullw	10
  1796   001518  CFF3 F013          	movff	prodl,view_log@view_addr
  1797   00151C  CFF4 F014          	movff	prodh,view_log@view_addr+1
  1798   001520                     
  1799                           ; BSR set to: 0
  1800                           ;blackbox.c: 333:         clcd_print("LOGS", (0x80 + (5)));
  1801   001520  0EF4               	movlw	low STR_7
  1802   001522  6E03               	movwf	clcd_print@data^0,c
  1803   001524  0E2F               	movlw	high STR_7
  1804   001526  6E04               	movwf	(clcd_print@data+1)^0,c
  1805   001528  0E85               	movlw	133
  1806   00152A  6E05               	movwf	clcd_print@addr^0,c
  1807   00152C  ECAE  F011         	call	_clcd_print	;wreg free
  1808   001530                     
  1809                           ;blackbox.c: 334:         clcd_putch(log_count + 48, (0xC0 + (0)));
  1810   001530  0EC0               	movlw	192
  1811   001532  6E0D               	movwf	clcd_putch@addr^0,c
  1812   001534  5057               	movf	_log_count^0,w,c
  1813   001536  0F30               	addlw	48
  1814   001538  ECE6  F013         	call	_clcd_putch
  1815   00153C                     
  1816                           ;blackbox.c: 335:         clcd_print(" ", (0xC0 + (1)));
  1817   00153C  0EFD               	movlw	low (STR_9+1)
  1818   00153E  6E03               	movwf	clcd_print@data^0,c
  1819   001540  0E2F               	movlw	high (STR_9+1)
  1820   001542  6E04               	movwf	(clcd_print@data+1)^0,c
  1821   001544  0EC1               	movlw	193
  1822   001546  6E05               	movwf	clcd_print@addr^0,c
  1823   001548  ECAE  F011         	call	_clcd_print	;wreg free
  1824   00154C                     
  1825                           ;blackbox.c: 336:         for (int j = 2; j < 10; j++)
  1826   00154C  0E00               	movlw	0
  1827   00154E  6E16               	movwf	(view_log@j+1)^0,c
  1828   001550  0E02               	movlw	2
  1829   001552  6E15               	movwf	view_log@j^0,c
  1830   001554                     l4895:
  1831                           
  1832                           ;blackbox.c: 337:         {;blackbox.c: 338:             if (j == 4 || j == 7)
  1833   001554  0E04               	movlw	4
  1834   001556  1815               	xorwf	view_log@j^0,w,c
  1835   001558  1016               	iorwf	(view_log@j+1)^0,w,c
  1836   00155A  B4D8               	btfsc	status,2,c
  1837   00155C  EFB2  F00A         	goto	u3491
  1838   001560  EFB4  F00A         	goto	u3490
  1839   001564                     u3491:
  1840   001564  EFBE  F00A         	goto	l4899
  1841   001568                     u3490:
  1842   001568  0E07               	movlw	7
  1843   00156A  1815               	xorwf	view_log@j^0,w,c
  1844   00156C  1016               	iorwf	(view_log@j+1)^0,w,c
  1845   00156E  A4D8               	btfss	status,2,c
  1846   001570  EFBC  F00A         	goto	u3501
  1847   001574  EFBE  F00A         	goto	u3500
  1848   001578                     u3501:
  1849   001578  EFC6  F00A         	goto	l4901
  1850   00157C                     u3500:
  1851   00157C                     l4899:
  1852                           
  1853                           ;blackbox.c: 339:             {;blackbox.c: 340:                 clcd_putch(':', (0xC0 +
      +                           (j)));
  1854   00157C  5015               	movf	view_log@j^0,w,c
  1855   00157E  0FC0               	addlw	192
  1856   001580  6E0D               	movwf	clcd_putch@addr^0,c
  1857   001582  0E3A               	movlw	58
  1858   001584  ECE6  F013         	call	_clcd_putch
  1859                           
  1860                           ;blackbox.c: 341:             }
  1861   001588  EFD2  F00A         	goto	l4907
  1862   00158C                     l4901:
  1863                           
  1864                           ;blackbox.c: 343:             {;blackbox.c: 344:                 data = read_24c02(view_
      +                          addr++);
  1865   00158C  5013               	movf	view_log@view_addr^0,w,c
  1866   00158E  EC80  F013         	call	_read_24c02
  1867   001592  6E5A               	movwf	_data^0,c
  1868   001594  4A13               	infsnz	view_log@view_addr^0,f,c
  1869   001596  2A14               	incf	(view_log@view_addr+1)^0,f,c
  1870   001598                     
  1871                           ;blackbox.c: 345:                 clcd_putch(data, (0xC0 + (j)));
  1872   001598  5015               	movf	view_log@j^0,w,c
  1873   00159A  0FC0               	addlw	192
  1874   00159C  6E0D               	movwf	clcd_putch@addr^0,c
  1875   00159E  505A               	movf	_data^0,w,c
  1876   0015A0  ECE6  F013         	call	_clcd_putch
  1877   0015A4                     l4907:
  1878                           
  1879                           ;blackbox.c: 347:         }
  1880   0015A4  4A15               	infsnz	view_log@j^0,f,c
  1881   0015A6  2A16               	incf	(view_log@j+1)^0,f,c
  1882   0015A8  BE16               	btfsc	(view_log@j+1)^0,7,c
  1883   0015AA  EFE0  F00A         	goto	u3511
  1884   0015AE  5016               	movf	(view_log@j+1)^0,w,c
  1885   0015B0  E109               	bnz	u3510
  1886   0015B2  0E0A               	movlw	10
  1887   0015B4  5C15               	subwf	view_log@j^0,w,c
  1888   0015B6  A0D8               	btfss	status,0,c
  1889   0015B8  EFE0  F00A         	goto	u3511
  1890   0015BC  EFE2  F00A         	goto	u3510
  1891   0015C0                     u3511:
  1892   0015C0  EFAA  F00A         	goto	l4895
  1893   0015C4                     u3510:
  1894   0015C4                     
  1895                           ;blackbox.c: 348:         clcd_print("  ", (0xC0 + (10)));
  1896   0015C4  0EFC               	movlw	low STR_9
  1897   0015C6  6E03               	movwf	clcd_print@data^0,c
  1898   0015C8  0E2F               	movlw	high STR_9
  1899   0015CA  6E04               	movwf	(clcd_print@data+1)^0,c
  1900   0015CC  0ECA               	movlw	202
  1901   0015CE  6E05               	movwf	clcd_print@addr^0,c
  1902   0015D0  ECAE  F011         	call	_clcd_print	;wreg free
  1903   0015D4                     
  1904                           ;blackbox.c: 349:         data = read_24c02(view_addr++);
  1905   0015D4  5013               	movf	view_log@view_addr^0,w,c
  1906   0015D6  EC80  F013         	call	_read_24c02
  1907   0015DA  6E5A               	movwf	_data^0,c
  1908   0015DC  4A13               	infsnz	view_log@view_addr^0,f,c
  1909   0015DE  2A14               	incf	(view_log@view_addr+1)^0,f,c
  1910   0015E0                     
  1911                           ;blackbox.c: 350:         clcd_putch(data, (0xC0 + (11)));
  1912   0015E0  0ECB               	movlw	203
  1913   0015E2  6E0D               	movwf	clcd_putch@addr^0,c
  1914   0015E4  505A               	movf	_data^0,w,c
  1915   0015E6  ECE6  F013         	call	_clcd_putch
  1916   0015EA                     
  1917                           ;blackbox.c: 351:         data = read_24c02(view_addr++);
  1918   0015EA  5013               	movf	view_log@view_addr^0,w,c
  1919   0015EC  EC80  F013         	call	_read_24c02
  1920   0015F0  6E5A               	movwf	_data^0,c
  1921   0015F2  4A13               	infsnz	view_log@view_addr^0,f,c
  1922   0015F4  2A14               	incf	(view_log@view_addr+1)^0,f,c
  1923   0015F6                     
  1924                           ;blackbox.c: 352:         clcd_putch(data, (0xC0 + (12)));
  1925   0015F6  0ECC               	movlw	204
  1926   0015F8  6E0D               	movwf	clcd_putch@addr^0,c
  1927   0015FA  505A               	movf	_data^0,w,c
  1928   0015FC  ECE6  F013         	call	_clcd_putch
  1929                           
  1930                           ;blackbox.c: 353:         clcd_print("  ", (0xC0 + (13)));
  1931   001600  0EFC               	movlw	low STR_9
  1932   001602  6E03               	movwf	clcd_print@data^0,c
  1933   001604  0E2F               	movlw	high STR_9
  1934   001606  6E04               	movwf	(clcd_print@data+1)^0,c
  1935   001608  0ECD               	movlw	205
  1936   00160A  6E05               	movwf	clcd_print@addr^0,c
  1937   00160C  ECAE  F011         	call	_clcd_print	;wreg free
  1938   001610                     
  1939                           ;blackbox.c: 354:         data = read_24c02(view_addr++);
  1940   001610  5013               	movf	view_log@view_addr^0,w,c
  1941   001612  EC80  F013         	call	_read_24c02
  1942   001616  6E5A               	movwf	_data^0,c
  1943   001618  4A13               	infsnz	view_log@view_addr^0,f,c
  1944   00161A  2A14               	incf	(view_log@view_addr+1)^0,f,c
  1945   00161C                     
  1946                           ;blackbox.c: 355:         clcd_putch(data, (0xC0 + (14)));
  1947   00161C  0ECE               	movlw	206
  1948   00161E  6E0D               	movwf	clcd_putch@addr^0,c
  1949   001620  505A               	movf	_data^0,w,c
  1950   001622  ECE6  F013         	call	_clcd_putch
  1951   001626                     
  1952                           ;blackbox.c: 356:         data = read_24c02(view_addr++);
  1953   001626  5013               	movf	view_log@view_addr^0,w,c
  1954   001628  EC80  F013         	call	_read_24c02
  1955   00162C  6E5A               	movwf	_data^0,c
  1956   00162E  4A13               	infsnz	view_log@view_addr^0,f,c
  1957   001630  2A14               	incf	(view_log@view_addr+1)^0,f,c
  1958   001632                     
  1959                           ;blackbox.c: 357:         clcd_putch(data, (0xC0 + (15)));
  1960   001632  0ECF               	movlw	207
  1961   001634  6E0D               	movwf	clcd_putch@addr^0,c
  1962   001636  505A               	movf	_data^0,w,c
  1963   001638  ECE6  F013         	call	_clcd_putch
  1964   00163C                     
  1965                           ;blackbox.c: 358:         if (key == 11 && (log_count > 0))
  1966   00163C  0E0B               	movlw	11
  1967   00163E  185C               	xorwf	_key^0,w,c
  1968   001640  A4D8               	btfss	status,2,c
  1969   001642  EF25  F00B         	goto	u3521
  1970   001646  EF27  F00B         	goto	u3520
  1971   00164A                     u3521:
  1972   00164A  EF34  F00B         	goto	l4943
  1973   00164E                     u3520:
  1974   00164E  5057               	movf	_log_count^0,w,c
  1975   001650  B4D8               	btfsc	status,2,c
  1976   001652  EF2D  F00B         	goto	u3531
  1977   001656  EF2F  F00B         	goto	u3530
  1978   00165A                     u3531:
  1979   00165A  EF34  F00B         	goto	l4943
  1980   00165E                     u3530:
  1981   00165E                     
  1982                           ;blackbox.c: 359:         {;blackbox.c: 360:             line1--;
  1983   00165E  0100               	movlb	0	; () banked
  1984   001660  0780               	decf	_line1& (0+255),f,b
  1985   001662  A0D8               	btfss	status,0,c
  1986   001664  0781               	decf	(_line1+1)& (0+255),f,b
  1987                           
  1988                           ;blackbox.c: 361:             log_count--;
  1989   001666  0657               	decf	_log_count^0,f,c
  1990   001668                     l4943:
  1991                           
  1992                           ;blackbox.c: 363:         if (key == 12 && (log_count < no_event))
  1993   001668  0E0C               	movlw	12
  1994   00166A  185C               	xorwf	_key^0,w,c
  1995   00166C  A4D8               	btfss	status,2,c
  1996   00166E  EF3B  F00B         	goto	u3541
  1997   001672  EF3D  F00B         	goto	u3540
  1998   001676                     u3541:
  1999   001676  EF4F  F00B         	goto	l4949
  2000   00167A                     u3540:
  2001   00167A  5057               	movf	_log_count^0,w,c
  2002   00167C  6E0F               	movwf	??_view_log^0,c
  2003   00167E  6A10               	clrf	(??_view_log+1)^0,c
  2004   001680  5048               	movf	_no_event^0,w,c
  2005   001682  5C0F               	subwf	??_view_log^0,w,c
  2006   001684  5049               	movf	(_no_event+1)^0,w,c
  2007   001686  5810               	subwfb	(??_view_log+1)^0,w,c
  2008   001688  B0D8               	btfsc	status,0,c
  2009   00168A  EF49  F00B         	goto	u3551
  2010   00168E  EF4B  F00B         	goto	u3550
  2011   001692                     u3551:
  2012   001692  EF4F  F00B         	goto	l4949
  2013   001696                     u3550:
  2014   001696                     
  2015                           ;blackbox.c: 364:         {;blackbox.c: 365:             line1++;
  2016   001696  0100               	movlb	0	; () banked
  2017   001698  4B80               	infsnz	_line1& (0+255),f,b
  2018   00169A  2B81               	incf	(_line1+1)& (0+255),f,b
  2019                           
  2020                           ;blackbox.c: 366:             log_count++;
  2021   00169C  2A57               	incf	_log_count^0,f,c
  2022   00169E                     l4949:
  2023                           
  2024                           ;blackbox.c: 369:     if (key == 14)
  2025   00169E  0E0E               	movlw	14
  2026   0016A0  185C               	xorwf	_key^0,w,c
  2027   0016A2  A4D8               	btfss	status,2,c
  2028   0016A4  EF56  F00B         	goto	u3561
  2029   0016A8  EF58  F00B         	goto	u3560
  2030   0016AC                     u3561:
  2031   0016AC  EF61  F00B         	goto	l888
  2032   0016B0                     u3560:
  2033   0016B0                     
  2034                           ;blackbox.c: 370:     {;blackbox.c: 371:         main_flag = 1;
  2035   0016B0  0E00               	movlw	0
  2036   0016B2  6E4D               	movwf	(_main_flag+1)^0,c
  2037   0016B4  0E01               	movlw	1
  2038   0016B6  6E4C               	movwf	_main_flag^0,c
  2039   0016B8                     
  2040                           ;blackbox.c: 372:         clcd_write(0x01, 0);
  2041   0016B8  0E00               	movlw	0
  2042   0016BA  6E01               	movwf	clcd_write@control_bit^0,c
  2043   0016BC  0E01               	movlw	1
  2044   0016BE  EC63  F013         	call	_clcd_write
  2045   0016C2                     l888:
  2046   0016C2  0012               	return		;funcret
  2047   0016C4                     __end_of_view_log:
  2048                           	callstack 0
  2049                           
  2050 ;; *************** function _set_time *****************
  2051 ;; Defined at:
  2052 ;;		line 454 in file "blackbox.c"
  2053 ;; Parameters:    Size  Location     Type
  2054 ;;		None
  2055 ;; Auto vars:     Size  Location     Type
  2056 ;;  i               2   17[COMRAM] unsigned int 
  2057 ;;  i               2   15[COMRAM] unsigned int 
  2058 ;; Return value:  Size  Location     Type
  2059 ;;                  1    wreg      void 
  2060 ;; Registers used:
  2061 ;;		wreg, fsr0l, fsr0h, status,2, status,0, tblptrl, tblptrh, tblptru, cstack
  2062 ;; Tracked objects:
  2063 ;;		On entry : 0/0
  2064 ;;		On exit  : 0/0
  2065 ;;		Unchanged: 0/0
  2066 ;; Data sizes:     COMRAM   BANK0   BANK1   BANK2   BANK3   BANK4   BANK5
  2067 ;;      Params:         0       0       0       0       0       0       0
  2068 ;;      Locals:         4       0       0       0       0       0       0
  2069 ;;      Temps:          1       0       0       0       0       0       0
  2070 ;;      Totals:         5       0       0       0       0       0       0
  2071 ;;Total ram usage:        5 bytes
  2072 ;; Hardware stack levels used: 1
  2073 ;; Hardware stack levels required when called: 4
  2074 ;; This function calls:
  2075 ;;		_clcd_print
  2076 ;;		_clcd_putch
  2077 ;;		_clcd_write
  2078 ;;		_write_ds1307
  2079 ;; This function is called by:
  2080 ;;		_main
  2081 ;; This function uses a non-reentrant model
  2082 ;;
  2083                           
  2084                           	psect	text2
  2085   000012                     __ptext2:
  2086                           	callstack 0
  2087   000012                     _set_time:
  2088                           	callstack 26
  2089   000012                     
  2090                           ;blackbox.c: 456:     clcd_print("HH:MM:SS",(0x80 + (3)));
  2091   000012  0EDC               	movlw	low STR_19
  2092   000014  6E03               	movwf	clcd_print@data^0,c
  2093   000016  0E2F               	movlw	high STR_19
  2094   000018  6E04               	movwf	(clcd_print@data+1)^0,c
  2095   00001A  0E83               	movlw	131
  2096   00001C  6E05               	movwf	clcd_print@addr^0,c
  2097   00001E  ECAE  F011         	call	_clcd_print	;wreg free
  2098   000022                     
  2099                           ;blackbox.c: 458:     if(key==12)
  2100   000022  0E0C               	movlw	12
  2101   000024  185C               	xorwf	_key^0,w,c
  2102   000026  A4D8               	btfss	status,2,c
  2103   000028  EF18  F000         	goto	u3711
  2104   00002C  EF1A  F000         	goto	u3710
  2105   000030                     u3711:
  2106   000030  EF2A  F000         	goto	l5111
  2107   000034                     u3710:
  2108   000034                     
  2109                           ;blackbox.c: 459:     {;blackbox.c: 460:         time_field++;
  2110   000034  4A46               	infsnz	_time_field^0,f,c
  2111   000036  2A47               	incf	(_time_field+1)^0,f,c
  2112   000038                     
  2113                           ;blackbox.c: 461:         if(time_field==3)
  2114   000038  0E03               	movlw	3
  2115   00003A  1846               	xorwf	_time_field^0,w,c
  2116   00003C  1047               	iorwf	(_time_field+1)^0,w,c
  2117   00003E  A4D8               	btfss	status,2,c
  2118   000040  EF24  F000         	goto	u3721
  2119   000044  EF26  F000         	goto	u3720
  2120   000048                     u3721:
  2121   000048  EF2A  F000         	goto	l5111
  2122   00004C                     u3720:
  2123   00004C                     
  2124                           ;blackbox.c: 462:         {;blackbox.c: 463:             time_field=0;
  2125   00004C  0E00               	movlw	0
  2126   00004E  6E47               	movwf	(_time_field+1)^0,c
  2127   000050  0E00               	movlw	0
  2128   000052  6E46               	movwf	_time_field^0,c
  2129   000054                     l5111:
  2130                           
  2131                           ;blackbox.c: 466:     if(time_field==0)
  2132   000054  5046               	movf	_time_field^0,w,c
  2133   000056  1047               	iorwf	(_time_field+1)^0,w,c
  2134   000058  A4D8               	btfss	status,2,c
  2135   00005A  EF31  F000         	goto	u3731
  2136   00005E  EF33  F000         	goto	u3730
  2137   000062                     u3731:
  2138   000062  EF74  F000         	goto	l5127
  2139   000066                     u3730:
  2140   000066                     
  2141                           ;blackbox.c: 467:     {;blackbox.c: 468:         if(delay1<500)
  2142   000066  5041               	movf	(_delay1+3)^0,w,c
  2143   000068  1040               	iorwf	(_delay1+2)^0,w,c
  2144   00006A  E109               	bnz	u3741
  2145   00006C  0EF4               	movlw	244
  2146   00006E  5C3E               	subwf	_delay1^0,w,c
  2147   000070  0E01               	movlw	1
  2148   000072  583F               	subwfb	(_delay1+1)^0,w,c
  2149   000074  B0D8               	btfsc	status,0,c
  2150   000076  EF3F  F000         	goto	u3741
  2151   00007A  EF41  F000         	goto	u3740
  2152   00007E                     u3741:
  2153   00007E  EF53  F000         	goto	l5119
  2154   000082                     u3740:
  2155   000082                     
  2156                           ;blackbox.c: 469:         {;blackbox.c: 470:             clcd_putch(' ',(0xC0 + (3)));
  2157   000082  0EC3               	movlw	195
  2158   000084  6E0D               	movwf	clcd_putch@addr^0,c
  2159   000086  0E20               	movlw	32
  2160   000088  ECE6  F013         	call	_clcd_putch
  2161                           
  2162                           ;blackbox.c: 471:             clcd_putch(' ',(0xC0 + (4)));
  2163   00008C  0EC4               	movlw	196
  2164   00008E  6E0D               	movwf	clcd_putch@addr^0,c
  2165   000090  0E20               	movlw	32
  2166   000092  ECE6  F013         	call	_clcd_putch
  2167   000096                     l5117:
  2168                           
  2169                           ;blackbox.c: 472:             delay1++;
  2170   000096  0E01               	movlw	1
  2171   000098  263E               	addwf	_delay1^0,f,c
  2172   00009A  0E00               	movlw	0
  2173   00009C  223F               	addwfc	(_delay1+1)^0,f,c
  2174   00009E  2240               	addwfc	(_delay1+2)^0,f,c
  2175   0000A0  2241               	addwfc	(_delay1+3)^0,f,c
  2176                           
  2177                           ;blackbox.c: 473:         }
  2178   0000A2  EF0B  F001         	goto	l5159
  2179   0000A6                     l5119:
  2180   0000A6  5041               	movf	(_delay1+3)^0,w,c
  2181   0000A8  1040               	iorwf	(_delay1+2)^0,w,c
  2182   0000AA  E109               	bnz	u3751
  2183   0000AC  0EE8               	movlw	232
  2184   0000AE  5C3E               	subwf	_delay1^0,w,c
  2185   0000B0  0E03               	movlw	3
  2186   0000B2  583F               	subwfb	(_delay1+1)^0,w,c
  2187   0000B4  B0D8               	btfsc	status,0,c
  2188   0000B6  EF5F  F000         	goto	u3751
  2189   0000BA  EF61  F000         	goto	u3750
  2190   0000BE                     u3751:
  2191   0000BE  EF6A  F000         	goto	l5125
  2192   0000C2                     u3750:
  2193   0000C2                     
  2194                           ;blackbox.c: 475:         {;blackbox.c: 477:             clcd_print(time,(0xC0 + (3)));
  2195   0000C2  0E90               	movlw	low _time
  2196   0000C4  6E03               	movwf	clcd_print@data^0,c
  2197   0000C6  6A04               	clrf	(clcd_print@data+1)^0,c
  2198   0000C8  0EC3               	movlw	195
  2199   0000CA  6E05               	movwf	clcd_print@addr^0,c
  2200   0000CC  ECAE  F011         	call	_clcd_print	;wreg free
  2201   0000D0  EF4B  F000         	goto	l5117
  2202   0000D4                     l5125:
  2203                           
  2204                           ;blackbox.c: 481:         {;blackbox.c: 482:             delay1=0;
  2205   0000D4  0E00               	movlw	0
  2206   0000D6  6E3E               	movwf	_delay1^0,c
  2207   0000D8  0E00               	movlw	0
  2208   0000DA  6E3F               	movwf	(_delay1+1)^0,c
  2209   0000DC  0E00               	movlw	0
  2210   0000DE  6E40               	movwf	(_delay1+2)^0,c
  2211   0000E0  0E00               	movlw	0
  2212   0000E2  6E41               	movwf	(_delay1+3)^0,c
  2213   0000E4  EF0B  F001         	goto	l5159
  2214   0000E8                     l5127:
  2215   0000E8  0446               	decf	_time_field^0,w,c
  2216   0000EA  1047               	iorwf	(_time_field+1)^0,w,c
  2217   0000EC  A4D8               	btfss	status,2,c
  2218   0000EE  EF7B  F000         	goto	u3761
  2219   0000F2  EF7D  F000         	goto	u3760
  2220   0000F6                     u3761:
  2221   0000F6  EFC0  F000         	goto	l5143
  2222   0000FA                     u3760:
  2223   0000FA                     
  2224                           ;blackbox.c: 486:     {;blackbox.c: 487:         if(delay2<500)
  2225   0000FA  0100               	movlb	0	; () banked
  2226   0000FC  5170               	movf	(_delay2+3)& (0+255),w,b
  2227   0000FE  116F               	iorwf	(_delay2+2)& (0+255),w,b
  2228   000100  E109               	bnz	u3771
  2229   000102  0EF4               	movlw	244
  2230   000104  5D6D               	subwf	_delay2& (0+255),w,b
  2231   000106  0E01               	movlw	1
  2232   000108  596E               	subwfb	(_delay2+1)& (0+255),w,b
  2233   00010A  B0D8               	btfsc	status,0,c
  2234   00010C  EF8A  F000         	goto	u3771
  2235   000110  EF8C  F000         	goto	u3770
  2236   000114                     u3771:
  2237   000114  EF9F  F000         	goto	l5135
  2238   000118                     u3770:
  2239   000118                     
  2240                           ; BSR set to: 0
  2241                           ;blackbox.c: 488:         {;blackbox.c: 489:             clcd_putch(' ',(0xC0 + (6)));
  2242   000118  0EC6               	movlw	198
  2243   00011A  6E0D               	movwf	clcd_putch@addr^0,c
  2244   00011C  0E20               	movlw	32
  2245   00011E  ECE6  F013         	call	_clcd_putch
  2246                           
  2247                           ;blackbox.c: 490:             clcd_putch(' ',(0xC0 + (7)));
  2248   000122  0EC7               	movlw	199
  2249   000124  6E0D               	movwf	clcd_putch@addr^0,c
  2250   000126  0E20               	movlw	32
  2251   000128  ECE6  F013         	call	_clcd_putch
  2252   00012C                     l5133:
  2253                           
  2254                           ;blackbox.c: 491:             delay2++;
  2255   00012C  0E01               	movlw	1
  2256   00012E  0100               	movlb	0	; () banked
  2257   000130  276D               	addwf	_delay2& (0+255),f,b
  2258   000132  0E00               	movlw	0
  2259   000134  236E               	addwfc	(_delay2+1)& (0+255),f,b
  2260   000136  236F               	addwfc	(_delay2+2)& (0+255),f,b
  2261   000138  2370               	addwfc	(_delay2+3)& (0+255),f,b
  2262                           
  2263                           ;blackbox.c: 492:         }
  2264   00013A  EF0B  F001         	goto	l5159
  2265   00013E                     l5135:
  2266                           
  2267                           ; BSR set to: 0
  2268   00013E  5170               	movf	(_delay2+3)& (0+255),w,b
  2269   000140  116F               	iorwf	(_delay2+2)& (0+255),w,b
  2270   000142  E109               	bnz	u3781
  2271   000144  0EE8               	movlw	232
  2272   000146  5D6D               	subwf	_delay2& (0+255),w,b
  2273   000148  0E03               	movlw	3
  2274   00014A  596E               	subwfb	(_delay2+1)& (0+255),w,b
  2275   00014C  B0D8               	btfsc	status,0,c
  2276   00014E  EFAB  F000         	goto	u3781
  2277   000152  EFAD  F000         	goto	u3780
  2278   000156                     u3781:
  2279   000156  EFB6  F000         	goto	l5141
  2280   00015A                     u3780:
  2281   00015A                     
  2282                           ; BSR set to: 0
  2283                           ;blackbox.c: 494:         {;blackbox.c: 495:             clcd_print(time,(0xC0 + (3)));
  2284   00015A  0E90               	movlw	low _time
  2285   00015C  6E03               	movwf	clcd_print@data^0,c
  2286   00015E  6A04               	clrf	(clcd_print@data+1)^0,c
  2287   000160  0EC3               	movlw	195
  2288   000162  6E05               	movwf	clcd_print@addr^0,c
  2289   000164  ECAE  F011         	call	_clcd_print	;wreg free
  2290   000168  EF96  F000         	goto	l5133
  2291   00016C                     l5141:
  2292                           
  2293                           ; BSR set to: 0
  2294                           ;blackbox.c: 499:         {;blackbox.c: 500:             delay2=0;
  2295   00016C  0E00               	movlw	0
  2296   00016E  6F6D               	movwf	_delay2& (0+255),b
  2297   000170  0E00               	movlw	0
  2298   000172  6F6E               	movwf	(_delay2+1)& (0+255),b
  2299   000174  0E00               	movlw	0
  2300   000176  6F6F               	movwf	(_delay2+2)& (0+255),b
  2301   000178  0E00               	movlw	0
  2302   00017A  6F70               	movwf	(_delay2+3)& (0+255),b
  2303   00017C  EF0B  F001         	goto	l5159
  2304   000180                     l5143:
  2305   000180  0E02               	movlw	2
  2306   000182  1846               	xorwf	_time_field^0,w,c
  2307   000184  1047               	iorwf	(_time_field+1)^0,w,c
  2308   000186  A4D8               	btfss	status,2,c
  2309   000188  EFC8  F000         	goto	u3791
  2310   00018C  EFCA  F000         	goto	u3790
  2311   000190                     u3791:
  2312   000190  EF0B  F001         	goto	l5159
  2313   000194                     u3790:
  2314   000194                     
  2315                           ;blackbox.c: 504:     {;blackbox.c: 505:         if(delay3<500)
  2316   000194  0100               	movlb	0	; () banked
  2317   000196  516C               	movf	(_delay3+3)& (0+255),w,b
  2318   000198  116B               	iorwf	(_delay3+2)& (0+255),w,b
  2319   00019A  E109               	bnz	u3801
  2320   00019C  0EF4               	movlw	244
  2321   00019E  5D69               	subwf	_delay3& (0+255),w,b
  2322   0001A0  0E01               	movlw	1
  2323   0001A2  596A               	subwfb	(_delay3+1)& (0+255),w,b
  2324   0001A4  B0D8               	btfsc	status,0,c
  2325   0001A6  EFD7  F000         	goto	u3801
  2326   0001AA  EFD9  F000         	goto	u3800
  2327   0001AE                     u3801:
  2328   0001AE  EFEC  F000         	goto	l5151
  2329   0001B2                     u3800:
  2330   0001B2                     
  2331                           ; BSR set to: 0
  2332                           ;blackbox.c: 506:         {;blackbox.c: 507:             clcd_putch(' ',(0xC0 + (9)));
  2333   0001B2  0EC9               	movlw	201
  2334   0001B4  6E0D               	movwf	clcd_putch@addr^0,c
  2335   0001B6  0E20               	movlw	32
  2336   0001B8  ECE6  F013         	call	_clcd_putch
  2337                           
  2338                           ;blackbox.c: 508:             clcd_putch(' ',(0xC0 + (10)));
  2339   0001BC  0ECA               	movlw	202
  2340   0001BE  6E0D               	movwf	clcd_putch@addr^0,c
  2341   0001C0  0E20               	movlw	32
  2342   0001C2  ECE6  F013         	call	_clcd_putch
  2343   0001C6                     l5149:
  2344                           
  2345                           ;blackbox.c: 509:             delay3++;
  2346   0001C6  0E01               	movlw	1
  2347   0001C8  0100               	movlb	0	; () banked
  2348   0001CA  2769               	addwf	_delay3& (0+255),f,b
  2349   0001CC  0E00               	movlw	0
  2350   0001CE  236A               	addwfc	(_delay3+1)& (0+255),f,b
  2351   0001D0  236B               	addwfc	(_delay3+2)& (0+255),f,b
  2352   0001D2  236C               	addwfc	(_delay3+3)& (0+255),f,b
  2353                           
  2354                           ;blackbox.c: 510:         }
  2355   0001D4  EF0B  F001         	goto	l5159
  2356   0001D8                     l5151:
  2357                           
  2358                           ; BSR set to: 0
  2359   0001D8  516C               	movf	(_delay3+3)& (0+255),w,b
  2360   0001DA  116B               	iorwf	(_delay3+2)& (0+255),w,b
  2361   0001DC  E109               	bnz	u3811
  2362   0001DE  0EE8               	movlw	232
  2363   0001E0  5D69               	subwf	_delay3& (0+255),w,b
  2364   0001E2  0E03               	movlw	3
  2365   0001E4  596A               	subwfb	(_delay3+1)& (0+255),w,b
  2366   0001E6  B0D8               	btfsc	status,0,c
  2367   0001E8  EFF8  F000         	goto	u3811
  2368   0001EC  EFFA  F000         	goto	u3810
  2369   0001F0                     u3811:
  2370   0001F0  EF03  F001         	goto	l5157
  2371   0001F4                     u3810:
  2372   0001F4                     
  2373                           ; BSR set to: 0
  2374                           ;blackbox.c: 512:         {;blackbox.c: 513:             clcd_print(time,(0xC0 + (3)));
  2375   0001F4  0E90               	movlw	low _time
  2376   0001F6  6E03               	movwf	clcd_print@data^0,c
  2377   0001F8  6A04               	clrf	(clcd_print@data+1)^0,c
  2378   0001FA  0EC3               	movlw	195
  2379   0001FC  6E05               	movwf	clcd_print@addr^0,c
  2380   0001FE  ECAE  F011         	call	_clcd_print	;wreg free
  2381   000202  EFE3  F000         	goto	l5149
  2382   000206                     l5157:
  2383                           
  2384                           ; BSR set to: 0
  2385                           ;blackbox.c: 517:         {;blackbox.c: 518:             delay3=0;
  2386   000206  0E00               	movlw	0
  2387   000208  6F69               	movwf	_delay3& (0+255),b
  2388   00020A  0E00               	movlw	0
  2389   00020C  6F6A               	movwf	(_delay3+1)& (0+255),b
  2390   00020E  0E00               	movlw	0
  2391   000210  6F6B               	movwf	(_delay3+2)& (0+255),b
  2392   000212  0E00               	movlw	0
  2393   000214  6F6C               	movwf	(_delay3+3)& (0+255),b
  2394   000216                     l5159:
  2395                           
  2396                           ;blackbox.c: 522:     if(key==11)
  2397   000216  0E0B               	movlw	11
  2398   000218  185C               	xorwf	_key^0,w,c
  2399   00021A  A4D8               	btfss	status,2,c
  2400   00021C  EF12  F001         	goto	u3821
  2401   000220  EF14  F001         	goto	u3820
  2402   000224                     u3821:
  2403   000224  EFB4  F001         	goto	l5217
  2404   000228                     u3820:
  2405   000228                     
  2406                           ;blackbox.c: 523:     {;blackbox.c: 524:         if(time_field==0)
  2407   000228  5046               	movf	_time_field^0,w,c
  2408   00022A  1047               	iorwf	(_time_field+1)^0,w,c
  2409   00022C  A4D8               	btfss	status,2,c
  2410   00022E  EF1B  F001         	goto	u3831
  2411   000232  EF1D  F001         	goto	u3830
  2412   000236                     u3831:
  2413   000236  EF44  F001         	goto	l5179
  2414   00023A                     u3830:
  2415   00023A                     
  2416                           ;blackbox.c: 525:         {;blackbox.c: 526:             if(time[0]<'2')
  2417   00023A  0E32               	movlw	50
  2418   00023C  0100               	movlb	0	; () banked
  2419   00023E  6190               	cpfslt	_time& (0+255),b
  2420   000240  EF24  F001         	goto	u3841
  2421   000244  EF26  F001         	goto	u3840
  2422   000248                     u3841:
  2423   000248  EF36  F001         	goto	l5173
  2424   00024C                     u3840:
  2425   00024C                     
  2426                           ; BSR set to: 0
  2427                           ;blackbox.c: 527:             {;blackbox.c: 528:                 if(time[1]<'9')
  2428   00024C  0E39               	movlw	57
  2429   00024E  6191               	cpfslt	(_time+1)& (0+255),b
  2430   000250  EF2C  F001         	goto	u3851
  2431   000254  EF2E  F001         	goto	u3850
  2432   000258                     u3851:
  2433   000258  EF31  F001         	goto	l5169
  2434   00025C                     u3850:
  2435   00025C                     l5167:
  2436                           
  2437                           ; BSR set to: 0
  2438                           ;blackbox.c: 529:                 {;blackbox.c: 530:                     time[1]++;
  2439   00025C  2B91               	incf	(_time+1)& (0+255),f,b
  2440                           
  2441                           ;blackbox.c: 531:                 }
  2442   00025E  EF44  F001         	goto	l5179
  2443   000262                     l5169:
  2444                           
  2445                           ; BSR set to: 0
  2446                           ;blackbox.c: 533:                 {;blackbox.c: 534:                     time[1]='0';
  2447   000262  0E30               	movlw	48
  2448   000264  6F91               	movwf	(_time+1)& (0+255),b
  2449   000266                     
  2450                           ; BSR set to: 0
  2451                           ;blackbox.c: 535:                     time[0]++;
  2452   000266  2B90               	incf	_time& (0+255),f,b
  2453   000268  EF44  F001         	goto	l5179
  2454   00026C                     l5173:
  2455                           
  2456                           ; BSR set to: 0
  2457                           ;blackbox.c: 539:             {;blackbox.c: 540:                 if(time[1]<'3')
  2458   00026C  0E33               	movlw	51
  2459   00026E  6191               	cpfslt	(_time+1)& (0+255),b
  2460   000270  EF3C  F001         	goto	u3861
  2461   000274  EF3E  F001         	goto	u3860
  2462   000278                     u3861:
  2463   000278  EF40  F001         	goto	l5177
  2464   00027C                     u3860:
  2465   00027C  EF2E  F001         	goto	l5167
  2466   000280                     l5177:
  2467                           
  2468                           ; BSR set to: 0
  2469                           ;blackbox.c: 545:                 {;blackbox.c: 546:                     time[1]='0';
  2470   000280  0E30               	movlw	48
  2471   000282  6F91               	movwf	(_time+1)& (0+255),b
  2472                           
  2473                           ;blackbox.c: 547:                     time[0]='0';
  2474   000284  0E30               	movlw	48
  2475   000286  6F90               	movwf	_time& (0+255),b
  2476   000288                     l5179:
  2477                           
  2478                           ;blackbox.c: 551:         if(time_field==1)
  2479   000288  0446               	decf	_time_field^0,w,c
  2480   00028A  1047               	iorwf	(_time_field+1)^0,w,c
  2481   00028C  A4D8               	btfss	status,2,c
  2482   00028E  EF4B  F001         	goto	u3871
  2483   000292  EF4D  F001         	goto	u3870
  2484   000296                     u3871:
  2485   000296  EF77  F001         	goto	l5197
  2486   00029A                     u3870:
  2487   00029A                     
  2488                           ;blackbox.c: 552:         {;blackbox.c: 553:             if(time[3]<'6')
  2489   00029A  0E36               	movlw	54
  2490   00029C  0100               	movlb	0	; () banked
  2491   00029E  6193               	cpfslt	(_time+3)& (0+255),b
  2492   0002A0  EF54  F001         	goto	u3881
  2493   0002A4  EF56  F001         	goto	u3880
  2494   0002A8                     u3881:
  2495   0002A8  EF71  F001         	goto	l5195
  2496   0002AC                     u3880:
  2497   0002AC                     
  2498                           ; BSR set to: 0
  2499                           ;blackbox.c: 554:             {;blackbox.c: 555:                 if(time[4]<'9')
  2500   0002AC  0E39               	movlw	57
  2501   0002AE  6194               	cpfslt	(_time+4)& (0+255),b
  2502   0002B0  EF5C  F001         	goto	u3891
  2503   0002B4  EF5E  F001         	goto	u3890
  2504   0002B8                     u3891:
  2505   0002B8  EF61  F001         	goto	l5187
  2506   0002BC                     u3890:
  2507   0002BC                     
  2508                           ; BSR set to: 0
  2509                           ;blackbox.c: 556:                 {;blackbox.c: 557:                     time[4]++;
  2510   0002BC  2B94               	incf	(_time+4)& (0+255),f,b
  2511                           
  2512                           ;blackbox.c: 558:                 }
  2513   0002BE  EF77  F001         	goto	l5197
  2514   0002C2                     l5187:
  2515                           
  2516                           ; BSR set to: 0
  2517                           ;blackbox.c: 560:                 {;blackbox.c: 561:                     time[3]++;
  2518   0002C2  2B93               	incf	(_time+3)& (0+255),f,b
  2519   0002C4                     
  2520                           ; BSR set to: 0
  2521                           ;blackbox.c: 562:                     time[4]='0';
  2522   0002C4  0E30               	movlw	48
  2523   0002C6  6F94               	movwf	(_time+4)& (0+255),b
  2524   0002C8                     
  2525                           ; BSR set to: 0
  2526                           ;blackbox.c: 563:                     if(time[3]=='6')
  2527   0002C8  0E36               	movlw	54
  2528   0002CA  1993               	xorwf	(_time+3)& (0+255),w,b
  2529   0002CC  A4D8               	btfss	status,2,c
  2530   0002CE  EF6B  F001         	goto	u3901
  2531   0002D2  EF6D  F001         	goto	u3900
  2532   0002D6                     u3901:
  2533   0002D6  EF77  F001         	goto	l958
  2534   0002DA                     u3900:
  2535   0002DA                     
  2536                           ; BSR set to: 0
  2537                           ;blackbox.c: 564:                     {;blackbox.c: 565:                         time[3]
      +                          ='0';
  2538   0002DA  0E30               	movlw	48
  2539   0002DC  6F93               	movwf	(_time+3)& (0+255),b
  2540   0002DE  EF77  F001         	goto	l5197
  2541   0002E2                     l5195:
  2542                           
  2543                           ; BSR set to: 0
  2544                           ;blackbox.c: 570:             {;blackbox.c: 571:                 time[3]='0';
  2545   0002E2  0E30               	movlw	48
  2546   0002E4  6F93               	movwf	(_time+3)& (0+255),b
  2547                           
  2548                           ;blackbox.c: 572:                 time[4]='0';
  2549   0002E6  0E30               	movlw	48
  2550   0002E8  6F94               	movwf	(_time+4)& (0+255),b
  2551   0002EA  EF77  F001         	goto	l5197
  2552   0002EE                     l958:
  2553   0002EE                     l5197:
  2554                           
  2555                           ;blackbox.c: 575:         if(time_field==2)
  2556   0002EE  0E02               	movlw	2
  2557   0002F0  1846               	xorwf	_time_field^0,w,c
  2558   0002F2  1047               	iorwf	(_time_field+1)^0,w,c
  2559   0002F4  A4D8               	btfss	status,2,c
  2560   0002F6  EF7F  F001         	goto	u3911
  2561   0002FA  EF81  F001         	goto	u3910
  2562   0002FE                     u3911:
  2563   0002FE  EFB4  F001         	goto	l5217
  2564   000302                     u3910:
  2565   000302                     
  2566                           ;blackbox.c: 576:         {;blackbox.c: 577:             if(time[6]<'6')
  2567   000302  0E36               	movlw	54
  2568   000304  0100               	movlb	0	; () banked
  2569   000306  6196               	cpfslt	(_time+6)& (0+255),b
  2570   000308  EF88  F001         	goto	u3921
  2571   00030C  EF8A  F001         	goto	u3920
  2572   000310                     u3921:
  2573   000310  EFAE  F001         	goto	l5215
  2574   000314                     u3920:
  2575   000314                     
  2576                           ; BSR set to: 0
  2577                           ;blackbox.c: 578:             {;blackbox.c: 579:                 if(time[7]<'9')
  2578   000314  0E39               	movlw	57
  2579   000316  6197               	cpfslt	(_time+7)& (0+255),b
  2580   000318  EF90  F001         	goto	u3931
  2581   00031C  EF92  F001         	goto	u3930
  2582   000320                     u3931:
  2583   000320  EF95  F001         	goto	l5205
  2584   000324                     u3930:
  2585   000324                     
  2586                           ; BSR set to: 0
  2587                           ;blackbox.c: 580:                 {;blackbox.c: 581:                     time[7]++;
  2588   000324  2B97               	incf	(_time+7)& (0+255),f,b
  2589                           
  2590                           ;blackbox.c: 582:                 }
  2591   000326  EFB4  F001         	goto	l5217
  2592   00032A                     l5205:
  2593                           
  2594                           ; BSR set to: 0
  2595   00032A  0E39               	movlw	57
  2596   00032C  1997               	xorwf	(_time+7)& (0+255),w,b
  2597   00032E  A4D8               	btfss	status,2,c
  2598   000330  EF9C  F001         	goto	u3941
  2599   000334  EF9E  F001         	goto	u3940
  2600   000338                     u3941:
  2601   000338  EFB4  F001         	goto	l5217
  2602   00033C                     u3940:
  2603   00033C                     
  2604                           ; BSR set to: 0
  2605                           ;blackbox.c: 584:                 {;blackbox.c: 585:                     time[7]='0';
  2606   00033C  0E30               	movlw	48
  2607   00033E  6F97               	movwf	(_time+7)& (0+255),b
  2608   000340                     
  2609                           ; BSR set to: 0
  2610                           ;blackbox.c: 586:                     time[6]++;
  2611   000340  2B96               	incf	(_time+6)& (0+255),f,b
  2612   000342                     
  2613                           ; BSR set to: 0
  2614                           ;blackbox.c: 587:                     if(time[6]=='6')
  2615   000342  0E36               	movlw	54
  2616   000344  1996               	xorwf	(_time+6)& (0+255),w,b
  2617   000346  A4D8               	btfss	status,2,c
  2618   000348  EFA8  F001         	goto	u3951
  2619   00034C  EFAA  F001         	goto	u3950
  2620   000350                     u3951:
  2621   000350  EFB4  F001         	goto	l965
  2622   000354                     u3950:
  2623   000354                     
  2624                           ; BSR set to: 0
  2625                           ;blackbox.c: 588:                     {;blackbox.c: 589:                         time[6]
      +                          ='0';
  2626   000354  0E30               	movlw	48
  2627   000356  6F96               	movwf	(_time+6)& (0+255),b
  2628   000358  EFB4  F001         	goto	l5217
  2629   00035C                     l5215:
  2630                           
  2631                           ; BSR set to: 0
  2632                           ;blackbox.c: 594:             {;blackbox.c: 595:                     time[6]='0';
  2633   00035C  0E30               	movlw	48
  2634   00035E  6F96               	movwf	(_time+6)& (0+255),b
  2635                           
  2636                           ;blackbox.c: 596:                     time[7]='0';
  2637   000360  0E30               	movlw	48
  2638   000362  6F97               	movwf	(_time+7)& (0+255),b
  2639   000364  EFB4  F001         	goto	l5217
  2640   000368                     l965:
  2641   000368                     l5217:
  2642                           
  2643                           ;blackbox.c: 600:     if(key==13)
  2644   000368  0E0D               	movlw	13
  2645   00036A  185C               	xorwf	_key^0,w,c
  2646   00036C  A4D8               	btfss	status,2,c
  2647   00036E  EFBB  F001         	goto	u3961
  2648   000372  EFBD  F001         	goto	u3960
  2649   000376                     u3961:
  2650   000376  EF15  F002         	goto	l5247
  2651   00037A                     u3960:
  2652   00037A                     
  2653                           ;blackbox.c: 601:     {;blackbox.c: 602:         t=(time[0]-'0'<<4)|(time[1]-'0');
  2654   00037A  C090  F00F         	movff	_time,??_set_time
  2655   00037E  3A0F               	swapf	??_set_time^0,f,c
  2656   000380  0EF0               	movlw	240
  2657   000382  160F               	andwf	??_set_time^0,f,c
  2658   000384  0100               	movlb	0	; () banked
  2659   000386  5191               	movf	(_time+1)& (0+255),w,b
  2660   000388  0FD0               	addlw	208
  2661   00038A  100F               	iorwf	??_set_time^0,w,c
  2662   00038C  6E55               	movwf	_t^0,c
  2663   00038E                     
  2664                           ; BSR set to: 0
  2665                           ;blackbox.c: 603:         write_ds1307(0x02,t);
  2666   00038E  C055  F002         	movff	_t,write_ds1307@data
  2667   000392  0E02               	movlw	2
  2668   000394  ECCA  F013         	call	_write_ds1307
  2669   000398                     
  2670                           ;blackbox.c: 604:         t=(time[3]-'0'<<4)|(time[4]-'0');
  2671   000398  C093  F00F         	movff	_time+3,??_set_time
  2672   00039C  3A0F               	swapf	??_set_time^0,f,c
  2673   00039E  0EF0               	movlw	240
  2674   0003A0  160F               	andwf	??_set_time^0,f,c
  2675   0003A2  0100               	movlb	0	; () banked
  2676   0003A4  5194               	movf	(_time+4)& (0+255),w,b
  2677   0003A6  0FD0               	addlw	208
  2678   0003A8  100F               	iorwf	??_set_time^0,w,c
  2679   0003AA  6E55               	movwf	_t^0,c
  2680                           
  2681                           ;blackbox.c: 605:         write_ds1307(0x01,t);
  2682   0003AC  C055  F002         	movff	_t,write_ds1307@data
  2683   0003B0  0E01               	movlw	1
  2684   0003B2  ECCA  F013         	call	_write_ds1307
  2685   0003B6                     
  2686                           ;blackbox.c: 606:         t=(time[6]-'0'<<4)|(time[7]-'0');
  2687   0003B6  C096  F00F         	movff	_time+6,??_set_time
  2688   0003BA  3A0F               	swapf	??_set_time^0,f,c
  2689   0003BC  0EF0               	movlw	240
  2690   0003BE  160F               	andwf	??_set_time^0,f,c
  2691   0003C0  0100               	movlb	0	; () banked
  2692   0003C2  5197               	movf	(_time+7)& (0+255),w,b
  2693   0003C4  0FD0               	addlw	208
  2694   0003C6  100F               	iorwf	??_set_time^0,w,c
  2695   0003C8  6E55               	movwf	_t^0,c
  2696   0003CA                     
  2697                           ; BSR set to: 0
  2698                           ;blackbox.c: 607:         write_ds1307(0x00,t);
  2699   0003CA  C055  F002         	movff	_t,write_ds1307@data
  2700   0003CE  0E00               	movlw	0
  2701   0003D0  ECCA  F013         	call	_write_ds1307
  2702   0003D4                     
  2703                           ;blackbox.c: 608:         clcd_write(0x01, 0);
  2704   0003D4  0E00               	movlw	0
  2705   0003D6  6E01               	movwf	clcd_write@control_bit^0,c
  2706   0003D8  0E01               	movlw	1
  2707   0003DA  EC63  F013         	call	_clcd_write
  2708   0003DE                     
  2709                           ;blackbox.c: 609:         for(unsigned int i=0;i<4000;i++)
  2710   0003DE  0E00               	movlw	0
  2711   0003E0  6E11               	movwf	(set_time@i+1)^0,c
  2712   0003E2  0E00               	movlw	0
  2713   0003E4  6E10               	movwf	set_time@i^0,c
  2714   0003E6                     l5237:
  2715                           
  2716                           ;blackbox.c: 610:         {;blackbox.c: 611:             clcd_print("Time saved",(0x80 +
      +                           (0)));
  2717   0003E6  0EBD               	movlw	low STR_20
  2718   0003E8  6E03               	movwf	clcd_print@data^0,c
  2719   0003EA  0E2F               	movlw	high STR_20
  2720   0003EC  6E04               	movwf	(clcd_print@data+1)^0,c
  2721   0003EE  0E80               	movlw	128
  2722   0003F0  6E05               	movwf	clcd_print@addr^0,c
  2723   0003F2  ECAE  F011         	call	_clcd_print	;wreg free
  2724   0003F6                     
  2725                           ;blackbox.c: 612:         }
  2726   0003F6  4A10               	infsnz	set_time@i^0,f,c
  2727   0003F8  2A11               	incf	(set_time@i+1)^0,f,c
  2728   0003FA  0EA0               	movlw	160
  2729   0003FC  5C10               	subwf	set_time@i^0,w,c
  2730   0003FE  0E0F               	movlw	15
  2731   000400  5811               	subwfb	(set_time@i+1)^0,w,c
  2732   000402  A0D8               	btfss	status,0,c
  2733   000404  EF06  F002         	goto	u3971
  2734   000408  EF08  F002         	goto	u3970
  2735   00040C                     u3971:
  2736   00040C  EFF3  F001         	goto	l5237
  2737   000410                     u3970:
  2738   000410                     
  2739                           ;blackbox.c: 613:         main_flag=1;
  2740   000410  0E00               	movlw	0
  2741   000412  6E4D               	movwf	(_main_flag+1)^0,c
  2742   000414  0E01               	movlw	1
  2743   000416  6E4C               	movwf	_main_flag^0,c
  2744                           
  2745                           ;blackbox.c: 614:         time_field=0;
  2746   000418  0E00               	movlw	0
  2747   00041A  6E47               	movwf	(_time_field+1)^0,c
  2748   00041C  0E00               	movlw	0
  2749   00041E  6E46               	movwf	_time_field^0,c
  2750   000420                     
  2751                           ;blackbox.c: 615:         clcd_write(0x01, 0);
  2752   000420  0E00               	movlw	0
  2753   000422  6E01               	movwf	clcd_write@control_bit^0,c
  2754   000424  0E01               	movlw	1
  2755   000426  EC63  F013         	call	_clcd_write
  2756   00042A                     l5247:
  2757                           
  2758                           ;blackbox.c: 617:     if(key==14)
  2759   00042A  0E0E               	movlw	14
  2760   00042C  185C               	xorwf	_key^0,w,c
  2761   00042E  A4D8               	btfss	status,2,c
  2762   000430  EF1C  F002         	goto	u3981
  2763   000434  EF1E  F002         	goto	u3980
  2764   000438                     u3981:
  2765   000438  EF49  F002         	goto	l972
  2766   00043C                     u3980:
  2767   00043C                     
  2768                           ;blackbox.c: 618:     {;blackbox.c: 619:         clcd_write(0x01, 0);
  2769   00043C  0E00               	movlw	0
  2770   00043E  6E01               	movwf	clcd_write@control_bit^0,c
  2771   000440  0E01               	movlw	1
  2772   000442  EC63  F013         	call	_clcd_write
  2773   000446                     
  2774                           ;blackbox.c: 620:         for(unsigned int i=0;i<4000;i++)
  2775   000446  0E00               	movlw	0
  2776   000448  6E13               	movwf	(set_time@i_702+1)^0,c
  2777   00044A  0E00               	movlw	0
  2778   00044C  6E12               	movwf	set_time@i_702^0,c
  2779   00044E                     l5257:
  2780                           
  2781                           ;blackbox.c: 621:         {;blackbox.c: 622:             clcd_print("Time not saved",(0x
      +                          80 + (0)));
  2782   00044E  0E43               	movlw	low STR_21
  2783   000450  6E03               	movwf	clcd_print@data^0,c
  2784   000452  0E2F               	movlw	high STR_21
  2785   000454  6E04               	movwf	(clcd_print@data+1)^0,c
  2786   000456  0E80               	movlw	128
  2787   000458  6E05               	movwf	clcd_print@addr^0,c
  2788   00045A  ECAE  F011         	call	_clcd_print	;wreg free
  2789   00045E                     
  2790                           ;blackbox.c: 623:         }
  2791   00045E  4A12               	infsnz	set_time@i_702^0,f,c
  2792   000460  2A13               	incf	(set_time@i_702+1)^0,f,c
  2793   000462  0EA0               	movlw	160
  2794   000464  5C12               	subwf	set_time@i_702^0,w,c
  2795   000466  0E0F               	movlw	15
  2796   000468  5813               	subwfb	(set_time@i_702+1)^0,w,c
  2797   00046A  A0D8               	btfss	status,0,c
  2798   00046C  EF3A  F002         	goto	u3991
  2799   000470  EF3C  F002         	goto	u3990
  2800   000474                     u3991:
  2801   000474  EF27  F002         	goto	l5257
  2802   000478                     u3990:
  2803   000478                     
  2804                           ;blackbox.c: 624:         clcd_write(0x01, 0);
  2805   000478  0E00               	movlw	0
  2806   00047A  6E01               	movwf	clcd_write@control_bit^0,c
  2807   00047C  0E01               	movlw	1
  2808   00047E  EC63  F013         	call	_clcd_write
  2809   000482                     
  2810                           ;blackbox.c: 625:         main_flag=1;
  2811   000482  0E00               	movlw	0
  2812   000484  6E4D               	movwf	(_main_flag+1)^0,c
  2813   000486  0E01               	movlw	1
  2814   000488  6E4C               	movwf	_main_flag^0,c
  2815   00048A                     
  2816                           ;blackbox.c: 626:         time_field=0;
  2817   00048A  0E00               	movlw	0
  2818   00048C  6E47               	movwf	(_time_field+1)^0,c
  2819   00048E  0E00               	movlw	0
  2820   000490  6E46               	movwf	_time_field^0,c
  2821   000492                     l972:
  2822   000492  0012               	return		;funcret
  2823   000494                     __end_of_set_time:
  2824                           	callstack 0
  2825                           
  2826 ;; *************** function _read_switches *****************
  2827 ;; Defined at:
  2828 ;;		line 87 in file "matrix_keypad.c"
  2829 ;; Parameters:    Size  Location     Type
  2830 ;;  detection_ty    1    wreg     unsigned char 
  2831 ;; Auto vars:     Size  Location     Type
  2832 ;;  detection_ty    1    0[COMRAM] unsigned char 
  2833 ;; Return value:  Size  Location     Type
  2834 ;;                  1    wreg      unsigned char 
  2835 ;; Registers used:
  2836 ;;		wreg, status,2, status,0, cstack
  2837 ;; Tracked objects:
  2838 ;;		On entry : 0/0
  2839 ;;		On exit  : 0/0
  2840 ;;		Unchanged: 0/0
  2841 ;; Data sizes:     COMRAM   BANK0   BANK1   BANK2   BANK3   BANK4   BANK5
  2842 ;;      Params:         0       0       0       0       0       0       0
  2843 ;;      Locals:         1       0       0       0       0       0       0
  2844 ;;      Temps:          0       0       0       0       0       0       0
  2845 ;;      Totals:         1       0       0       0       0       0       0
  2846 ;;Total ram usage:        1 bytes
  2847 ;; Hardware stack levels used: 1
  2848 ;; Hardware stack levels required when called: 2
  2849 ;; This function calls:
  2850 ;;		_scan_key
  2851 ;; This function is called by:
  2852 ;;		_main
  2853 ;; This function uses a non-reentrant model
  2854 ;;
  2855                           
  2856                           	psect	text3
  2857   00226E                     __ptext3:
  2858                           	callstack 0
  2859   00226E                     _read_switches:
  2860                           	callstack 28
  2861                           
  2862                           ;incstack = 0
  2863                           ;read_switches@detection_type stored from wreg
  2864   00226E  6E01               	movwf	read_switches@detection_type^0,c
  2865   002270                     
  2866                           ;matrix_keypad.c: 87: unsigned char read_switches(unsigned char detection_type);matrix_k
      +                          eypad.c: 88: {;matrix_keypad.c: 89:  static unsigned char once = 1, key;;matrix_keypad.c
      +                          : 91:  if (detection_type == 1)
  2867   002270  0401               	decf	read_switches@detection_type^0,w,c
  2868   002272  A4D8               	btfss	status,2,c
  2869   002274  EF3E  F011         	goto	u3041
  2870   002278  EF40  F011         	goto	u3040
  2871   00227C                     u3041:
  2872   00227C  EF66  F011         	goto	l4599
  2873   002280                     u3040:
  2874   002280                     
  2875                           ;matrix_keypad.c: 92:  {;matrix_keypad.c: 93:   key = scan_key();
  2876   002280  ECCB  F00E         	call	_scan_key	;wreg free
  2877   002284  6E54               	movwf	read_switches@key^0,c
  2878   002286                     
  2879                           ;matrix_keypad.c: 94:   if(key != 0xFF && once )
  2880   002286  2854               	incf	read_switches@key^0,w,c
  2881   002288  B4D8               	btfsc	status,2,c
  2882   00228A  EF49  F011         	goto	u3051
  2883   00228E  EF4B  F011         	goto	u3050
  2884   002292                     u3051:
  2885   002292  EF59  F011         	goto	l4595
  2886   002296                     u3050:
  2887   002296  0100               	movlb	0	; () banked
  2888   002298  51AE               	movf	read_switches@once& (0+255),w,b
  2889   00229A  B4D8               	btfsc	status,2,c
  2890   00229C  EF52  F011         	goto	u3061
  2891   0022A0  EF54  F011         	goto	u3060
  2892   0022A4                     u3061:
  2893   0022A4  EF59  F011         	goto	l4595
  2894   0022A8                     u3060:
  2895   0022A8                     
  2896                           ; BSR set to: 0
  2897                           ;matrix_keypad.c: 95:   {;matrix_keypad.c: 96:    once = 0;
  2898   0022A8  0E00               	movlw	0
  2899   0022AA  6FAE               	movwf	read_switches@once& (0+255),b
  2900                           
  2901                           ;matrix_keypad.c: 97:    return key;
  2902   0022AC  5054               	movf	read_switches@key^0,w,c
  2903   0022AE  EF73  F011         	goto	l134
  2904   0022B2                     l4595:
  2905   0022B2  2854               	incf	read_switches@key^0,w,c
  2906   0022B4  A4D8               	btfss	status,2,c
  2907   0022B6  EF5F  F011         	goto	u3071
  2908   0022BA  EF61  F011         	goto	u3070
  2909   0022BE                     u3071:
  2910   0022BE  EF72  F011         	goto	l4605
  2911   0022C2                     u3070:
  2912   0022C2                     
  2913                           ;matrix_keypad.c: 100:   {;matrix_keypad.c: 101:    once = 1;
  2914   0022C2  0E01               	movlw	1
  2915   0022C4  0100               	movlb	0	; () banked
  2916   0022C6  6FAE               	movwf	read_switches@once& (0+255),b
  2917   0022C8  EF72  F011         	goto	l4605
  2918   0022CC                     l4599:
  2919   0022CC  5001               	movf	read_switches@detection_type^0,w,c
  2920   0022CE  A4D8               	btfss	status,2,c
  2921   0022D0  EF6C  F011         	goto	u3081
  2922   0022D4  EF6E  F011         	goto	u3080
  2923   0022D8                     u3081:
  2924   0022D8  EF72  F011         	goto	l4605
  2925   0022DC                     u3080:
  2926   0022DC                     
  2927                           ;matrix_keypad.c: 105:  {;matrix_keypad.c: 106:   return scan_key();
  2928   0022DC  ECCB  F00E         	call	_scan_key	;wreg free
  2929   0022E0  EF73  F011         	goto	l134
  2930   0022E4                     l4605:
  2931                           
  2932                           ;matrix_keypad.c: 109:  return 0xFF;
  2933   0022E4  0EFF               	movlw	255
  2934   0022E6                     l134:
  2935   0022E6  0012               	return		;funcret
  2936   0022E8                     __end_of_read_switches:
  2937                           	callstack 0
  2938                           
  2939 ;; *************** function _scan_key *****************
  2940 ;; Defined at:
  2941 ;;		line 17 in file "matrix_keypad.c"
  2942 ;; Parameters:    Size  Location     Type
  2943 ;;		None
  2944 ;; Auto vars:     Size  Location     Type
  2945 ;;		None
  2946 ;; Return value:  Size  Location     Type
  2947 ;;                  1    wreg      unsigned char 
  2948 ;; Registers used:
  2949 ;;		wreg
  2950 ;; Tracked objects:
  2951 ;;		On entry : 0/0
  2952 ;;		On exit  : 0/0
  2953 ;;		Unchanged: 0/0
  2954 ;; Data sizes:     COMRAM   BANK0   BANK1   BANK2   BANK3   BANK4   BANK5
  2955 ;;      Params:         0       0       0       0       0       0       0
  2956 ;;      Locals:         0       0       0       0       0       0       0
  2957 ;;      Temps:          0       0       0       0       0       0       0
  2958 ;;      Totals:         0       0       0       0       0       0       0
  2959 ;;Total ram usage:        0 bytes
  2960 ;; Hardware stack levels used: 1
  2961 ;; Hardware stack levels required when called: 1
  2962 ;; This function calls:
  2963 ;;		Nothing
  2964 ;; This function is called by:
  2965 ;;		_read_switches
  2966 ;; This function uses a non-reentrant model
  2967 ;;
  2968                           
  2969                           	psect	text4
  2970   001D96                     __ptext4:
  2971                           	callstack 0
  2972   001D96                     _scan_key:
  2973                           	callstack 28
  2974   001D96                     
  2975                           ;matrix_keypad.c: 19:  PORTBbits.RB5 = 0;
  2976   001D96  9A81               	bcf	129,5,c	;volatile
  2977                           
  2978                           ;matrix_keypad.c: 20:  PORTBbits.RB6 = 1;
  2979   001D98  8C81               	bsf	129,6,c	;volatile
  2980                           
  2981                           ;matrix_keypad.c: 21:  PORTBbits.RB7 = 1;
  2982   001D9A  8E81               	bsf	129,7,c	;volatile
  2983                           
  2984                           ;matrix_keypad.c: 23:  if (PORTBbits.RB1 == 0)
  2985   001D9C  B281               	btfsc	129,1,c	;volatile
  2986   001D9E  EFD3  F00E         	goto	u2351
  2987   001DA2  EFD5  F00E         	goto	u2350
  2988   001DA6                     u2351:
  2989   001DA6  EFD8  F00E         	goto	l104
  2990   001DAA                     u2350:
  2991   001DAA                     
  2992                           ;matrix_keypad.c: 24:  {;matrix_keypad.c: 25:   return 1;
  2993   001DAA  0E01               	movlw	1
  2994   001DAC  EF4E  F00F         	goto	l105
  2995   001DB0                     l104:
  2996   001DB0  B481               	btfsc	129,2,c	;volatile
  2997   001DB2  EFDD  F00E         	goto	u2361
  2998   001DB6  EFDF  F00E         	goto	u2360
  2999   001DBA                     u2361:
  3000   001DBA  EFE2  F00E         	goto	l107
  3001   001DBE                     u2360:
  3002   001DBE                     
  3003                           ;matrix_keypad.c: 28:  {;matrix_keypad.c: 29:   return 4;
  3004   001DBE  0E04               	movlw	4
  3005   001DC0  EF4E  F00F         	goto	l105
  3006   001DC4                     l107:
  3007   001DC4  B681               	btfsc	129,3,c	;volatile
  3008   001DC6  EFE7  F00E         	goto	u2371
  3009   001DCA  EFE9  F00E         	goto	u2370
  3010   001DCE                     u2371:
  3011   001DCE  EFEC  F00E         	goto	l109
  3012   001DD2                     u2370:
  3013   001DD2                     
  3014                           ;matrix_keypad.c: 32:  {;matrix_keypad.c: 33:   return 7;
  3015   001DD2  0E07               	movlw	7
  3016   001DD4  EF4E  F00F         	goto	l105
  3017   001DD8                     l109:
  3018   001DD8  B881               	btfsc	129,4,c	;volatile
  3019   001DDA  EFF1  F00E         	goto	u2381
  3020   001DDE  EFF3  F00E         	goto	u2380
  3021   001DE2                     u2381:
  3022   001DE2  EFF6  F00E         	goto	l106
  3023   001DE6                     u2380:
  3024   001DE6                     
  3025                           ;matrix_keypad.c: 36:  {;matrix_keypad.c: 37:   return 10;
  3026   001DE6  0E0A               	movlw	10
  3027   001DE8  EF4E  F00F         	goto	l105
  3028   001DEC                     l106:
  3029                           
  3030                           ;matrix_keypad.c: 40:  PORTBbits.RB5 = 1;
  3031   001DEC  8A81               	bsf	129,5,c	;volatile
  3032                           
  3033                           ;matrix_keypad.c: 41:  PORTBbits.RB6 = 0;
  3034   001DEE  9C81               	bcf	129,6,c	;volatile
  3035                           
  3036                           ;matrix_keypad.c: 42:  PORTBbits.RB7 = 1;
  3037   001DF0  8E81               	bsf	129,7,c	;volatile
  3038                           
  3039                           ;matrix_keypad.c: 44:  if (PORTBbits.RB1 == 0)
  3040   001DF2  B281               	btfsc	129,1,c	;volatile
  3041   001DF4  EFFE  F00E         	goto	u2391
  3042   001DF8  EF00  F00F         	goto	u2390
  3043   001DFC                     u2391:
  3044   001DFC  EF03  F00F         	goto	l112
  3045   001E00                     u2390:
  3046   001E00                     
  3047                           ;matrix_keypad.c: 45:  {;matrix_keypad.c: 46:   return 2;
  3048   001E00  0E02               	movlw	2
  3049   001E02  EF4E  F00F         	goto	l105
  3050   001E06                     l112:
  3051   001E06  B481               	btfsc	129,2,c	;volatile
  3052   001E08  EF08  F00F         	goto	u2401
  3053   001E0C  EF0A  F00F         	goto	u2400
  3054   001E10                     u2401:
  3055   001E10  EF0D  F00F         	goto	l114
  3056   001E14                     u2400:
  3057   001E14                     
  3058                           ;matrix_keypad.c: 49:  {;matrix_keypad.c: 50:   return 5;
  3059   001E14  0E05               	movlw	5
  3060   001E16  EF4E  F00F         	goto	l105
  3061   001E1A                     l114:
  3062   001E1A  B681               	btfsc	129,3,c	;volatile
  3063   001E1C  EF12  F00F         	goto	u2411
  3064   001E20  EF14  F00F         	goto	u2410
  3065   001E24                     u2411:
  3066   001E24  EF17  F00F         	goto	l116
  3067   001E28                     u2410:
  3068   001E28                     
  3069                           ;matrix_keypad.c: 53:  {;matrix_keypad.c: 54:   return 8;
  3070   001E28  0E08               	movlw	8
  3071   001E2A  EF4E  F00F         	goto	l105
  3072   001E2E                     l116:
  3073   001E2E  B881               	btfsc	129,4,c	;volatile
  3074   001E30  EF1C  F00F         	goto	u2421
  3075   001E34  EF1E  F00F         	goto	u2420
  3076   001E38                     u2421:
  3077   001E38  EF21  F00F         	goto	l113
  3078   001E3C                     u2420:
  3079   001E3C                     
  3080                           ;matrix_keypad.c: 57:  {;matrix_keypad.c: 58:   return 11;
  3081   001E3C  0E0B               	movlw	11
  3082   001E3E  EF4E  F00F         	goto	l105
  3083   001E42                     l113:
  3084                           
  3085                           ;matrix_keypad.c: 61:  PORTBbits.RB5 = 1;
  3086   001E42  8A81               	bsf	129,5,c	;volatile
  3087                           
  3088                           ;matrix_keypad.c: 62:  PORTBbits.RB6 = 1;
  3089   001E44  8C81               	bsf	129,6,c	;volatile
  3090                           
  3091                           ;matrix_keypad.c: 63:  PORTBbits.RB7 = 0;
  3092   001E46  9E81               	bcf	129,7,c	;volatile
  3093                           
  3094                           ;matrix_keypad.c: 65:  PORTBbits.RB7 = 0;
  3095   001E48  9E81               	bcf	129,7,c	;volatile
  3096                           
  3097                           ;matrix_keypad.c: 67:  if (PORTBbits.RB1 == 0)
  3098   001E4A  B281               	btfsc	129,1,c	;volatile
  3099   001E4C  EF2A  F00F         	goto	u2431
  3100   001E50  EF2C  F00F         	goto	u2430
  3101   001E54                     u2431:
  3102   001E54  EF2F  F00F         	goto	l119
  3103   001E58                     u2430:
  3104   001E58                     
  3105                           ;matrix_keypad.c: 68:  {;matrix_keypad.c: 69:   return 3;
  3106   001E58  0E03               	movlw	3
  3107   001E5A  EF4E  F00F         	goto	l105
  3108   001E5E                     l119:
  3109   001E5E  B481               	btfsc	129,2,c	;volatile
  3110   001E60  EF34  F00F         	goto	u2441
  3111   001E64  EF36  F00F         	goto	u2440
  3112   001E68                     u2441:
  3113   001E68  EF39  F00F         	goto	l121
  3114   001E6C                     u2440:
  3115   001E6C                     
  3116                           ;matrix_keypad.c: 72:  {;matrix_keypad.c: 73:   return 6;
  3117   001E6C  0E06               	movlw	6
  3118   001E6E  EF4E  F00F         	goto	l105
  3119   001E72                     l121:
  3120   001E72  B681               	btfsc	129,3,c	;volatile
  3121   001E74  EF3E  F00F         	goto	u2451
  3122   001E78  EF40  F00F         	goto	u2450
  3123   001E7C                     u2451:
  3124   001E7C  EF43  F00F         	goto	l123
  3125   001E80                     u2450:
  3126   001E80                     
  3127                           ;matrix_keypad.c: 76:  {;matrix_keypad.c: 77:   return 9;
  3128   001E80  0E09               	movlw	9
  3129   001E82  EF4E  F00F         	goto	l105
  3130   001E86                     l123:
  3131   001E86  B881               	btfsc	129,4,c	;volatile
  3132   001E88  EF48  F00F         	goto	u2461
  3133   001E8C  EF4A  F00F         	goto	u2460
  3134   001E90                     u2461:
  3135   001E90  EF4D  F00F         	goto	l122
  3136   001E94                     u2460:
  3137   001E94                     
  3138                           ;matrix_keypad.c: 80:  {;matrix_keypad.c: 81:   return 12;
  3139   001E94  0E0C               	movlw	12
  3140   001E96  EF4E  F00F         	goto	l105
  3141   001E9A                     l122:
  3142   001E9A                     
  3143                           ;matrix_keypad.c: 84:  return 0xFF;
  3144   001E9A  0EFF               	movlw	255
  3145   001E9C                     l105:
  3146   001E9C  0012               	return		;funcret
  3147   001E9E                     __end_of_scan_key:
  3148                           	callstack 0
  3149                           
  3150 ;; *************** function _init_config *****************
  3151 ;; Defined at:
  3152 ;;		line 9 in file "main.c"
  3153 ;; Parameters:    Size  Location     Type
  3154 ;;		None
  3155 ;; Auto vars:     Size  Location     Type
  3156 ;;  i               2    4[COMRAM] int 
  3157 ;; Return value:  Size  Location     Type
  3158 ;;                  1    wreg      void 
  3159 ;; Registers used:
  3160 ;;		wreg, fsr2l, fsr2h, status,2, status,0, cstack
  3161 ;; Tracked objects:
  3162 ;;		On entry : 0/0
  3163 ;;		On exit  : 0/0
  3164 ;;		Unchanged: 0/0
  3165 ;; Data sizes:     COMRAM   BANK0   BANK1   BANK2   BANK3   BANK4   BANK5
  3166 ;;      Params:         0       0       0       0       0       0       0
  3167 ;;      Locals:         2       0       0       0       0       0       0
  3168 ;;      Temps:          0       0       0       0       0       0       0
  3169 ;;      Totals:         2       0       0       0       0       0       0
  3170 ;;Total ram usage:        2 bytes
  3171 ;; Hardware stack levels used: 1
  3172 ;; Hardware stack levels required when called: 6
  3173 ;; This function calls:
  3174 ;;		_init_adc
  3175 ;;		_init_clcd
  3176 ;;		_init_ds1307
  3177 ;;		_init_i2c
  3178 ;;		_init_matrix_keypad
  3179 ;;		_init_timer0
  3180 ;;		_read_24c02
  3181 ;; This function is called by:
  3182 ;;		_main
  3183 ;; This function uses a non-reentrant model
  3184 ;;
  3185                           
  3186                           	psect	text5
  3187   00242C                     __ptext5:
  3188                           	callstack 0
  3189   00242C                     _init_config:
  3190                           	callstack 24
  3191   00242C                     
  3192                           ;main.c: 11:     init_adc();
  3193   00242C  ECAA  F013         	call	_init_adc	;wreg free
  3194   002430                     
  3195                           ;main.c: 12:     init_matrix_keypad();
  3196   002430  EC08  F014         	call	_init_matrix_keypad	;wreg free
  3197   002434                     
  3198                           ;main.c: 13:     init_clcd();
  3199   002434  ECD2  F00F         	call	_init_clcd	;wreg free
  3200                           
  3201                           ;main.c: 14:     init_timer0();
  3202   002438  ECD9  F013         	call	_init_timer0	;wreg free
  3203                           
  3204                           ;main.c: 15:     init_i2c();
  3205   00243C  ECF2  F013         	call	_init_i2c	;wreg free
  3206   002440                     
  3207                           ;main.c: 16:  init_ds1307();
  3208   002440  EC1C  F013         	call	_init_ds1307	;wreg free
  3209   002444                     
  3210                           ;main.c: 22:     address=200;
  3211   002444  0EC8               	movlw	200
  3212   002446  0100               	movlb	0	; () banked
  3213   002448  6F8F               	movwf	_address& (0+255),b
  3214   00244A                     
  3215                           ; BSR set to: 0
  3216                           ;main.c: 23:     for(int i=0;i<4;i++)
  3217   00244A  0E00               	movlw	0
  3218   00244C  6E06               	movwf	(init_config@i+1)^0,c
  3219   00244E  0E00               	movlw	0
  3220   002450  6E05               	movwf	init_config@i^0,c
  3221   002452                     l4625:
  3222                           
  3223                           ; BSR set to: 0
  3224                           ;main.c: 24:     {;main.c: 25:         data = read_24c02(address++);
  3225   002452  518F               	movf	_address& (0+255),w,b
  3226   002454  EC80  F013         	call	_read_24c02
  3227   002458  6E5A               	movwf	_data^0,c
  3228   00245A  0100               	movlb	0	; () banked
  3229   00245C  2B8F               	incf	_address& (0+255),f,b
  3230   00245E                     
  3231                           ; BSR set to: 0
  3232                           ;main.c: 26:         org_pass[i]=data;
  3233   00245E  5005               	movf	init_config@i^0,w,c
  3234   002460  0FA3               	addlw	low _org_pass
  3235   002462  6ED9               	movwf	fsr2l,c
  3236   002464  6ADA               	clrf	fsr2h,c
  3237   002466  C05A  FFDF         	movff	_data,indf2
  3238   00246A                     
  3239                           ; BSR set to: 0
  3240                           ;main.c: 27:     }
  3241   00246A  4A05               	infsnz	init_config@i^0,f,c
  3242   00246C  2A06               	incf	(init_config@i+1)^0,f,c
  3243   00246E                     
  3244                           ; BSR set to: 0
  3245   00246E  BE06               	btfsc	(init_config@i+1)^0,7,c
  3246   002470  EF43  F012         	goto	u3091
  3247   002474  5006               	movf	(init_config@i+1)^0,w,c
  3248   002476  E109               	bnz	u3090
  3249   002478  0E04               	movlw	4
  3250   00247A  5C05               	subwf	init_config@i^0,w,c
  3251   00247C  A0D8               	btfss	status,0,c
  3252   00247E  EF43  F012         	goto	u3091
  3253   002482  EF45  F012         	goto	u3090
  3254   002486                     u3091:
  3255   002486  EF29  F012         	goto	l4625
  3256   00248A                     u3090:
  3257   00248A                     
  3258                           ; BSR set to: 0
  3259   00248A  0012               	return		;funcret
  3260   00248C                     __end_of_init_config:
  3261                           	callstack 0
  3262                           
  3263 ;; *************** function _init_timer0 *****************
  3264 ;; Defined at:
  3265 ;;		line 3 in file "timer0.c"
  3266 ;; Parameters:    Size  Location     Type
  3267 ;;		None
  3268 ;; Auto vars:     Size  Location     Type
  3269 ;;		None
  3270 ;; Return value:  Size  Location     Type
  3271 ;;                  1    wreg      void 
  3272 ;; Registers used:
  3273 ;;		wreg, status,2
  3274 ;; Tracked objects:
  3275 ;;		On entry : 0/0
  3276 ;;		On exit  : 0/0
  3277 ;;		Unchanged: 0/0
  3278 ;; Data sizes:     COMRAM   BANK0   BANK1   BANK2   BANK3   BANK4   BANK5
  3279 ;;      Params:         0       0       0       0       0       0       0
  3280 ;;      Locals:         0       0       0       0       0       0       0
  3281 ;;      Temps:          0       0       0       0       0       0       0
  3282 ;;      Totals:         0       0       0       0       0       0       0
  3283 ;;Total ram usage:        0 bytes
  3284 ;; Hardware stack levels used: 1
  3285 ;; Hardware stack levels required when called: 1
  3286 ;; This function calls:
  3287 ;;		Nothing
  3288 ;; This function is called by:
  3289 ;;		_init_config
  3290 ;; This function uses a non-reentrant model
  3291 ;;
  3292                           
  3293                           	psect	text6
  3294   0027B2                     __ptext6:
  3295                           	callstack 0
  3296   0027B2                     _init_timer0:
  3297                           	callstack 28
  3298   0027B2                     
  3299                           ;timer0.c: 9:     GIE = PEIE = 1;
  3300   0027B2  8CF2               	bsf	4082,6,c	;volatile
  3301   0027B4  8EF2               	bsf	4082,7,c	;volatile
  3302                           
  3303                           ;timer0.c: 11:  T08BIT = 1;
  3304   0027B6  8CD5               	bsf	4053,6,c	;volatile
  3305                           
  3306                           ;timer0.c: 14:  T0CS = 0;
  3307   0027B8  9AD5               	bcf	4053,5,c	;volatile
  3308                           
  3309                           ;timer0.c: 17:  TMR0ON = 1;
  3310   0027BA  8ED5               	bsf	4053,7,c	;volatile
  3311                           
  3312                           ;timer0.c: 20:  PSA = 1;
  3313   0027BC  86D5               	bsf	4053,3,c	;volatile
  3314   0027BE                     
  3315                           ;timer0.c: 22:  TMR0 = 6;
  3316   0027BE  0E00               	movlw	0
  3317   0027C0  6ED7               	movwf	215,c	;volatile
  3318   0027C2  0E06               	movlw	6
  3319   0027C4  6ED6               	movwf	214,c	;volatile
  3320   0027C6                     
  3321                           ;timer0.c: 25:  TMR0IF = 0;
  3322   0027C6  94F2               	bcf	4082,2,c	;volatile
  3323   0027C8                     
  3324                           ;timer0.c: 28:  TMR0IE = 1;
  3325   0027C8  8AF2               	bsf	4082,5,c	;volatile
  3326   0027CA  0012               	return		;funcret
  3327   0027CC                     __end_of_init_timer0:
  3328                           	callstack 0
  3329                           
  3330 ;; *************** function _init_matrix_keypad *****************
  3331 ;; Defined at:
  3332 ;;		line 3 in file "matrix_keypad.c"
  3333 ;; Parameters:    Size  Location     Type
  3334 ;;		None
  3335 ;; Auto vars:     Size  Location     Type
  3336 ;;		None
  3337 ;; Return value:  Size  Location     Type
  3338 ;;                  1    wreg      void 
  3339 ;; Registers used:
  3340 ;;		wreg, status,2, status,0
  3341 ;; Tracked objects:
  3342 ;;		On entry : 0/0
  3343 ;;		On exit  : 0/0
  3344 ;;		Unchanged: 0/0
  3345 ;; Data sizes:     COMRAM   BANK0   BANK1   BANK2   BANK3   BANK4   BANK5
  3346 ;;      Params:         0       0       0       0       0       0       0
  3347 ;;      Locals:         0       0       0       0       0       0       0
  3348 ;;      Temps:          0       0       0       0       0       0       0
  3349 ;;      Totals:         0       0       0       0       0       0       0
  3350 ;;Total ram usage:        0 bytes
  3351 ;; Hardware stack levels used: 1
  3352 ;; Hardware stack levels required when called: 1
  3353 ;; This function calls:
  3354 ;;		Nothing
  3355 ;; This function is called by:
  3356 ;;		_init_config
  3357 ;; This function uses a non-reentrant model
  3358 ;;
  3359                           
  3360                           	psect	text7
  3361   002810                     __ptext7:
  3362                           	callstack 0
  3363   002810                     _init_matrix_keypad:
  3364                           	callstack 28
  3365   002810                     
  3366                           ;matrix_keypad.c: 6:  ADCON1 = 0x0F;
  3367   002810  0E0F               	movlw	15
  3368   002812  6EC1               	movwf	193,c	;volatile
  3369                           
  3370                           ;matrix_keypad.c: 9:  TRISB = 0x1E;
  3371   002814  0E1E               	movlw	30
  3372   002816  6E93               	movwf	147,c	;volatile
  3373   002818                     
  3374                           ;matrix_keypad.c: 12:  RBPU = 0;
  3375   002818  9EF1               	bcf	4081,7,c	;volatile
  3376   00281A                     
  3377                           ;matrix_keypad.c: 14:  PORTB = PORTB | 0xE0;
  3378   00281A  5081               	movf	129,w,c	;volatile
  3379   00281C  09E0               	iorlw	224
  3380   00281E  6E81               	movwf	129,c	;volatile
  3381   002820  0012               	return		;funcret
  3382   002822                     __end_of_init_matrix_keypad:
  3383                           	callstack 0
  3384                           
  3385 ;; *************** function _init_i2c *****************
  3386 ;; Defined at:
  3387 ;;		line 3 in file "i2c.c"
  3388 ;; Parameters:    Size  Location     Type
  3389 ;;		None
  3390 ;; Auto vars:     Size  Location     Type
  3391 ;;		None
  3392 ;; Return value:  Size  Location     Type
  3393 ;;                  1    wreg      void 
  3394 ;; Registers used:
  3395 ;;		wreg, status,2
  3396 ;; Tracked objects:
  3397 ;;		On entry : 0/0
  3398 ;;		On exit  : 0/0
  3399 ;;		Unchanged: 0/0
  3400 ;; Data sizes:     COMRAM   BANK0   BANK1   BANK2   BANK3   BANK4   BANK5
  3401 ;;      Params:         0       0       0       0       0       0       0
  3402 ;;      Locals:         0       0       0       0       0       0       0
  3403 ;;      Temps:          0       0       0       0       0       0       0
  3404 ;;      Totals:         0       0       0       0       0       0       0
  3405 ;;Total ram usage:        0 bytes
  3406 ;; Hardware stack levels used: 1
  3407 ;; Hardware stack levels required when called: 1
  3408 ;; This function calls:
  3409 ;;		Nothing
  3410 ;; This function is called by:
  3411 ;;		_init_config
  3412 ;; This function uses a non-reentrant model
  3413 ;;
  3414                           
  3415                           	psect	text8
  3416   0027E4                     __ptext8:
  3417                           	callstack 0
  3418   0027E4                     _init_i2c:
  3419                           	callstack 28
  3420   0027E4                     
  3421                           ;i2c.c: 6:  TRISC3 = 1;
  3422   0027E4  8694               	bsf	3988,3,c	;volatile
  3423                           
  3424                           ;i2c.c: 7:  TRISC4 = 1;
  3425   0027E6  8894               	bsf	3988,4,c	;volatile
  3426   0027E8                     
  3427                           ;i2c.c: 9:  SSPCON1 = 0x28;
  3428   0027E8  0E28               	movlw	40
  3429   0027EA  6EC6               	movwf	198,c	;volatile
  3430                           
  3431                           ;i2c.c: 11:  SSPADD = 0x31;
  3432   0027EC  0E31               	movlw	49
  3433   0027EE  6EC8               	movwf	200,c	;volatile
  3434   0027F0                     
  3435                           ;i2c.c: 13:  CKE = 0;
  3436   0027F0  9CC7               	bcf	4039,6,c	;volatile
  3437   0027F2                     
  3438                           ;i2c.c: 15:  SMP = 1;
  3439   0027F2  8EC7               	bsf	4039,7,c	;volatile
  3440   0027F4                     
  3441                           ;i2c.c: 17:  SSPIF = 0;
  3442   0027F4  969E               	bcf	3998,3,c	;volatile
  3443   0027F6                     
  3444                           ;i2c.c: 19:  BCLIF = 0;
  3445   0027F6  96A1               	bcf	4001,3,c	;volatile
  3446   0027F8  0012               	return		;funcret
  3447   0027FA                     __end_of_init_i2c:
  3448                           	callstack 0
  3449                           
  3450 ;; *************** function _init_ds1307 *****************
  3451 ;; Defined at:
  3452 ;;		line 10 in file "ds1307.c"
  3453 ;; Parameters:    Size  Location     Type
  3454 ;;		None
  3455 ;; Auto vars:     Size  Location     Type
  3456 ;;  dummy           1    3[COMRAM] unsigned char 
  3457 ;; Return value:  Size  Location     Type
  3458 ;;                  1    wreg      void 
  3459 ;; Registers used:
  3460 ;;		wreg, status,2, status,0, cstack
  3461 ;; Tracked objects:
  3462 ;;		On entry : 0/0
  3463 ;;		On exit  : 0/0
  3464 ;;		Unchanged: 0/0
  3465 ;; Data sizes:     COMRAM   BANK0   BANK1   BANK2   BANK3   BANK4   BANK5
  3466 ;;      Params:         0       0       0       0       0       0       0
  3467 ;;      Locals:         1       0       0       0       0       0       0
  3468 ;;      Temps:          0       0       0       0       0       0       0
  3469 ;;      Totals:         1       0       0       0       0       0       0
  3470 ;;Total ram usage:        1 bytes
  3471 ;; Hardware stack levels used: 1
  3472 ;; Hardware stack levels required when called: 5
  3473 ;; This function calls:
  3474 ;;		_read_ds1307
  3475 ;;		_write_ds1307
  3476 ;; This function is called by:
  3477 ;;		_init_config
  3478 ;; This function uses a non-reentrant model
  3479 ;;
  3480                           
  3481                           	psect	text9
  3482   002638                     __ptext9:
  3483                           	callstack 0
  3484   002638                     _init_ds1307:
  3485                           	callstack 24
  3486   002638                     
  3487                           ;ds1307.c: 12:  unsigned char dummy;;ds1307.c: 15:  dummy = read_ds1307(0x00);
  3488   002638  0E00               	movlw	0
  3489   00263A  EC95  F013         	call	_read_ds1307
  3490   00263E  6E04               	movwf	init_ds1307@dummy^0,c
  3491   002640                     
  3492                           ;ds1307.c: 16:  write_ds1307(0x00, dummy | 0x80);
  3493   002640  5004               	movf	init_ds1307@dummy^0,w,c
  3494   002642  0980               	iorlw	128
  3495   002644  6E02               	movwf	write_ds1307@data^0,c
  3496   002646  0E00               	movlw	0
  3497   002648  ECCA  F013         	call	_write_ds1307
  3498   00264C                     
  3499                           ;ds1307.c: 19:  dummy = read_ds1307(0x02);
  3500   00264C  0E02               	movlw	2
  3501   00264E  EC95  F013         	call	_read_ds1307
  3502   002652  6E04               	movwf	init_ds1307@dummy^0,c
  3503                           
  3504                           ;ds1307.c: 20:  write_ds1307(0x02, dummy | 0x40);
  3505   002654  5004               	movf	init_ds1307@dummy^0,w,c
  3506   002656  0940               	iorlw	64
  3507   002658  6E02               	movwf	write_ds1307@data^0,c
  3508   00265A  0E02               	movlw	2
  3509   00265C  ECCA  F013         	call	_write_ds1307
  3510   002660                     
  3511                           ;ds1307.c: 35:  write_ds1307(0x07, 0x93);
  3512   002660  0E93               	movlw	147
  3513   002662  6E02               	movwf	write_ds1307@data^0,c
  3514   002664  0E07               	movlw	7
  3515   002666  ECCA  F013         	call	_write_ds1307
  3516   00266A                     
  3517                           ;ds1307.c: 38:  dummy = read_ds1307(0x00);
  3518   00266A  0E00               	movlw	0
  3519   00266C  EC95  F013         	call	_read_ds1307
  3520   002670  6E04               	movwf	init_ds1307@dummy^0,c
  3521                           
  3522                           ;ds1307.c: 39:  write_ds1307(0x00, dummy & 0x7F);
  3523   002672  5004               	movf	init_ds1307@dummy^0,w,c
  3524   002674  0B7F               	andlw	127
  3525   002676  6E02               	movwf	write_ds1307@data^0,c
  3526   002678  0E00               	movlw	0
  3527   00267A  ECCA  F013         	call	_write_ds1307
  3528   00267E  0012               	return		;funcret
  3529   002680                     __end_of_init_ds1307:
  3530                           	callstack 0
  3531                           
  3532 ;; *************** function _write_ds1307 *****************
  3533 ;; Defined at:
  3534 ;;		line 43 in file "ds1307.c"
  3535 ;; Parameters:    Size  Location     Type
  3536 ;;  address         1    wreg     unsigned char 
  3537 ;;  data            1    1[COMRAM] unsigned char 
  3538 ;; Auto vars:     Size  Location     Type
  3539 ;;  address         1    2[COMRAM] unsigned char 
  3540 ;; Return value:  Size  Location     Type
  3541 ;;                  1    wreg      void 
  3542 ;; Registers used:
  3543 ;;		wreg, status,2, cstack
  3544 ;; Tracked objects:
  3545 ;;		On entry : 0/0
  3546 ;;		On exit  : 0/0
  3547 ;;		Unchanged: 0/0
  3548 ;; Data sizes:     COMRAM   BANK0   BANK1   BANK2   BANK3   BANK4   BANK5
  3549 ;;      Params:         1       0       0       0       0       0       0
  3550 ;;      Locals:         1       0       0       0       0       0       0
  3551 ;;      Temps:          0       0       0       0       0       0       0
  3552 ;;      Totals:         2       0       0       0       0       0       0
  3553 ;;Total ram usage:        2 bytes
  3554 ;; Hardware stack levels used: 1
  3555 ;; Hardware stack levels required when called: 3
  3556 ;; This function calls:
  3557 ;;		_i2c_start
  3558 ;;		_i2c_stop
  3559 ;;		_i2c_write
  3560 ;; This function is called by:
  3561 ;;		_set_time
  3562 ;;		_init_ds1307
  3563 ;; This function uses a non-reentrant model
  3564 ;;
  3565                           
  3566                           	psect	text10
  3567   002794                     __ptext10:
  3568                           	callstack 0
  3569   002794                     _write_ds1307:
  3570                           	callstack 26
  3571                           
  3572                           ;incstack = 0
  3573                           ;write_ds1307@address stored from wreg
  3574   002794  6E03               	movwf	write_ds1307@address^0,c
  3575   002796                     
  3576                           ;ds1307.c: 43: void write_ds1307(unsigned char address, unsigned char data);ds1307.c: 44
      +                          : {;ds1307.c: 45:  i2c_start();
  3577   002796  EC3B  F014         	call	_i2c_start	;wreg free
  3578   00279A                     
  3579                           ;ds1307.c: 46:  i2c_write(0xD0);
  3580   00279A  0ED0               	movlw	208
  3581   00279C  EC29  F014         	call	_i2c_write
  3582   0027A0                     
  3583                           ;ds1307.c: 47:  i2c_write(address);
  3584   0027A0  5003               	movf	write_ds1307@address^0,w,c
  3585   0027A2  EC29  F014         	call	_i2c_write
  3586   0027A6                     
  3587                           ;ds1307.c: 48:  i2c_write(data);
  3588   0027A6  5002               	movf	write_ds1307@data^0,w,c
  3589   0027A8  EC29  F014         	call	_i2c_write
  3590   0027AC                     
  3591                           ;ds1307.c: 49:  i2c_stop();
  3592   0027AC  EC37  F014         	call	_i2c_stop	;wreg free
  3593   0027B0  0012               	return		;funcret
  3594   0027B2                     __end_of_write_ds1307:
  3595                           	callstack 0
  3596                           
  3597 ;; *************** function _init_clcd *****************
  3598 ;; Defined at:
  3599 ;;		line 26 in file "clcd.c"
  3600 ;; Parameters:    Size  Location     Type
  3601 ;;		None
  3602 ;; Auto vars:     Size  Location     Type
  3603 ;;		None
  3604 ;; Return value:  Size  Location     Type
  3605 ;;                  1    wreg      void 
  3606 ;; Registers used:
  3607 ;;		wreg, status,2, status,0, cstack
  3608 ;; Tracked objects:
  3609 ;;		On entry : 0/0
  3610 ;;		On exit  : 0/0
  3611 ;;		Unchanged: 0/0
  3612 ;; Data sizes:     COMRAM   BANK0   BANK1   BANK2   BANK3   BANK4   BANK5
  3613 ;;      Params:         0       0       0       0       0       0       0
  3614 ;;      Locals:         0       0       0       0       0       0       0
  3615 ;;      Temps:          1       0       0       0       0       0       0
  3616 ;;      Totals:         1       0       0       0       0       0       0
  3617 ;;Total ram usage:        1 bytes
  3618 ;; Hardware stack levels used: 1
  3619 ;; Hardware stack levels required when called: 2
  3620 ;; This function calls:
  3621 ;;		_clcd_write
  3622 ;; This function is called by:
  3623 ;;		_init_config
  3624 ;; This function uses a non-reentrant model
  3625 ;;
  3626                           
  3627                           	psect	text11
  3628   001FA4                     __ptext11:
  3629                           	callstack 0
  3630   001FA4                     _init_clcd:
  3631                           	callstack 27
  3632   001FA4                     
  3633                           ;clcd.c: 29:  TRISD = 0x00;
  3634   001FA4  0E00               	movlw	0
  3635   001FA6  6E95               	movwf	149,c	;volatile
  3636   001FA8                     
  3637                           ;clcd.c: 31:  TRISC = TRISC & 0xF8;
  3638   001FA8  5094               	movf	148,w,c	;volatile
  3639   001FAA  0BF8               	andlw	248
  3640   001FAC  6E94               	movwf	148,c	;volatile
  3641   001FAE                     
  3642                           ;clcd.c: 33:  RC0 = 0;
  3643   001FAE  9082               	bcf	3970,0,c	;volatile
  3644   001FB0                     
  3645                           ;clcd.c: 37:     _delay((unsigned long)((30)*(20000000/4000.0)));
  3646   001FB0  0EC3               	movlw	195
  3647   001FB2  6E03               	movwf	??_init_clcd^0,c
  3648   001FB4  0ECD               	movlw	205
  3649   001FB6                     u4437:
  3650   001FB6  2EE8               	decfsz	wreg,f,c
  3651   001FB8  D7FE               	bra	u4437
  3652   001FBA  2E03               	decfsz	??_init_clcd^0,f,c
  3653   001FBC  D7FC               	bra	u4437
  3654   001FBE  0000               	nop	
  3655   001FC0                     
  3656                           ;clcd.c: 40:     clcd_write(0x33, 0 );
  3657   001FC0  0E00               	movlw	0
  3658   001FC2  6E01               	movwf	clcd_write@control_bit^0,c
  3659   001FC4  0E33               	movlw	51
  3660   001FC6  EC63  F013         	call	_clcd_write
  3661   001FCA                     
  3662                           ;clcd.c: 41:     _delay((unsigned long)((4100)*(20000000/4000000.0)));
  3663   001FCA  0E1B               	movlw	27
  3664   001FCC  6E03               	movwf	??_init_clcd^0,c
  3665   001FCE  0E9E               	movlw	158
  3666   001FD0                     u4447:
  3667   001FD0  2EE8               	decfsz	wreg,f,c
  3668   001FD2  D7FE               	bra	u4447
  3669   001FD4  2E03               	decfsz	??_init_clcd^0,f,c
  3670   001FD6  D7FC               	bra	u4447
  3671   001FD8  D000               	nop2	
  3672   001FDA                     
  3673                           ;clcd.c: 42:     clcd_write(0x33, 0 );
  3674   001FDA  0E00               	movlw	0
  3675   001FDC  6E01               	movwf	clcd_write@control_bit^0,c
  3676   001FDE  0E33               	movlw	51
  3677   001FE0  EC63  F013         	call	_clcd_write
  3678   001FE4                     
  3679                           ;clcd.c: 43:     _delay((unsigned long)((100)*(20000000/4000000.0)));
  3680   001FE4  0EA6               	movlw	166
  3681   001FE6                     u4457:
  3682   001FE6  2EE8               	decfsz	wreg,f,c
  3683   001FE8  D7FE               	bra	u4457
  3684   001FEA  D000               	nop2	
  3685   001FEC                     
  3686                           ;clcd.c: 44:     clcd_write(0x33, 0 );
  3687   001FEC  0E00               	movlw	0
  3688   001FEE  6E01               	movwf	clcd_write@control_bit^0,c
  3689   001FF0  0E33               	movlw	51
  3690   001FF2  EC63  F013         	call	_clcd_write
  3691   001FF6                     
  3692                           ;clcd.c: 45:     _delay((unsigned long)((1)*(20000000/4000000.0)));
  3693   001FF6  D000               	nop2		;2 cycle nop
  3694   001FF8  D000               	nop2		;2 cycle nop
  3695   001FFA  0000               	nop	
  3696   001FFC                     
  3697                           ;clcd.c: 47:     clcd_write(0x02, 0);
  3698   001FFC  0E00               	movlw	0
  3699   001FFE  6E01               	movwf	clcd_write@control_bit^0,c
  3700   002000  0E02               	movlw	2
  3701   002002  EC63  F013         	call	_clcd_write
  3702   002006                     
  3703                           ;clcd.c: 48:     _delay((unsigned long)((100)*(20000000/4000000.0)));
  3704   002006  0EA6               	movlw	166
  3705   002008                     u4467:
  3706   002008  2EE8               	decfsz	wreg,f,c
  3707   00200A  D7FE               	bra	u4467
  3708   00200C  D000               	nop2	
  3709   00200E                     
  3710                           ;clcd.c: 49:     clcd_write(0x38, 0);
  3711   00200E  0E00               	movlw	0
  3712   002010  6E01               	movwf	clcd_write@control_bit^0,c
  3713   002012  0E38               	movlw	56
  3714   002014  EC63  F013         	call	_clcd_write
  3715   002018                     
  3716                           ;clcd.c: 50:     _delay((unsigned long)((100)*(20000000/4000000.0)));
  3717   002018  0EA6               	movlw	166
  3718   00201A                     u4477:
  3719   00201A  2EE8               	decfsz	wreg,f,c
  3720   00201C  D7FE               	bra	u4477
  3721   00201E  D000               	nop2	
  3722   002020                     
  3723                           ;clcd.c: 51:     clcd_write(0x01, 0);
  3724   002020  0E00               	movlw	0
  3725   002022  6E01               	movwf	clcd_write@control_bit^0,c
  3726   002024  0E01               	movlw	1
  3727   002026  EC63  F013         	call	_clcd_write
  3728   00202A                     
  3729                           ;clcd.c: 52:     _delay((unsigned long)((500)*(20000000/4000000.0)));
  3730   00202A  0E04               	movlw	4
  3731   00202C  6E03               	movwf	??_init_clcd^0,c
  3732   00202E  0E3E               	movlw	62
  3733   002030                     u4487:
  3734   002030  2EE8               	decfsz	wreg,f,c
  3735   002032  D7FE               	bra	u4487
  3736   002034  2E03               	decfsz	??_init_clcd^0,f,c
  3737   002036  D7FC               	bra	u4487
  3738   002038                     
  3739                           ;clcd.c: 53:     clcd_write(0x0C, 0);
  3740   002038  0E00               	movlw	0
  3741   00203A  6E01               	movwf	clcd_write@control_bit^0,c
  3742   00203C  0E0C               	movlw	12
  3743   00203E  EC63  F013         	call	_clcd_write
  3744   002042                     
  3745                           ;clcd.c: 54:     _delay((unsigned long)((100)*(20000000/4000000.0)));
  3746   002042  0EA6               	movlw	166
  3747   002044                     u4497:
  3748   002044  2EE8               	decfsz	wreg,f,c
  3749   002046  D7FE               	bra	u4497
  3750   002048  D000               	nop2	
  3751   00204A  0012               	return		;funcret
  3752   00204C                     __end_of_init_clcd:
  3753                           	callstack 0
  3754                           
  3755 ;; *************** function _init_adc *****************
  3756 ;; Defined at:
  3757 ;;		line 3 in file "adc.c"
  3758 ;; Parameters:    Size  Location     Type
  3759 ;;		None
  3760 ;; Auto vars:     Size  Location     Type
  3761 ;;		None
  3762 ;; Return value:  Size  Location     Type
  3763 ;;                  1    wreg      void 
  3764 ;; Registers used:
  3765 ;;		wreg, status,2
  3766 ;; Tracked objects:
  3767 ;;		On entry : 0/0
  3768 ;;		On exit  : 0/0
  3769 ;;		Unchanged: 0/0
  3770 ;; Data sizes:     COMRAM   BANK0   BANK1   BANK2   BANK3   BANK4   BANK5
  3771 ;;      Params:         0       0       0       0       0       0       0
  3772 ;;      Locals:         0       0       0       0       0       0       0
  3773 ;;      Temps:          0       0       0       0       0       0       0
  3774 ;;      Totals:         0       0       0       0       0       0       0
  3775 ;;Total ram usage:        0 bytes
  3776 ;; Hardware stack levels used: 1
  3777 ;; Hardware stack levels required when called: 1
  3778 ;; This function calls:
  3779 ;;		Nothing
  3780 ;; This function is called by:
  3781 ;;		_init_config
  3782 ;; This function uses a non-reentrant model
  3783 ;;
  3784                           
  3785                           	psect	text12
  3786   002754                     __ptext12:
  3787                           	callstack 0
  3788   002754                     _init_adc:
  3789                           	callstack 28
  3790   002754                     
  3791                           ;adc.c: 6:  ADFM = 1;
  3792   002754  8EC0               	bsf	4032,7,c	;volatile
  3793                           
  3794                           ;adc.c: 12:  ACQT2 = 0;
  3795   002756  9AC0               	bcf	4032,5,c	;volatile
  3796                           
  3797                           ;adc.c: 13:  ACQT1 = 1;
  3798   002758  88C0               	bsf	4032,4,c	;volatile
  3799                           
  3800                           ;adc.c: 14:  ACQT0 = 0;
  3801   00275A  96C0               	bcf	4032,3,c	;volatile
  3802                           
  3803                           ;adc.c: 20:  ADCS0 = 0;
  3804   00275C  90C0               	bcf	4032,0,c	;volatile
  3805                           
  3806                           ;adc.c: 21:  ADCS1 = 1;
  3807   00275E  82C0               	bsf	4032,1,c	;volatile
  3808                           
  3809                           ;adc.c: 22:  ADCS2 = 0;
  3810   002760  94C0               	bcf	4032,2,c	;volatile
  3811                           
  3812                           ;adc.c: 25:  GODONE = 0;
  3813   002762  92C2               	bcf	4034,1,c	;volatile
  3814                           
  3815                           ;adc.c: 30:  VCFG1 = 0;
  3816   002764  9AC1               	bcf	4033,5,c	;volatile
  3817                           
  3818                           ;adc.c: 32:  VCFG0 = 0;
  3819   002766  98C1               	bcf	4033,4,c	;volatile
  3820   002768                     
  3821                           ;adc.c: 35:  ADRESH = 0;
  3822   002768  0E00               	movlw	0
  3823   00276A  6EC4               	movwf	196,c	;volatile
  3824                           
  3825                           ;adc.c: 36:  ADRESL = 0;
  3826   00276C  0E00               	movlw	0
  3827   00276E  6EC3               	movwf	195,c	;volatile
  3828   002770                     
  3829                           ;adc.c: 39:  ADON = 1;
  3830   002770  80C2               	bsf	4034,0,c	;volatile
  3831   002772  0012               	return		;funcret
  3832   002774                     __end_of_init_adc:
  3833                           	callstack 0
  3834                           
  3835 ;; *************** function _download_log *****************
  3836 ;; Defined at:
  3837 ;;		line 375 in file "blackbox.c"
  3838 ;; Parameters:    Size  Location     Type
  3839 ;;		None
  3840 ;; Auto vars:     Size  Location     Type
  3841 ;;  i               4   22[COMRAM] unsigned long 
  3842 ;;  k               2   36[COMRAM] int 
  3843 ;;  j               2   34[COMRAM] int 
  3844 ;;  i               2   32[COMRAM] unsigned int 
  3845 ;;  i               2   30[COMRAM] int 
  3846 ;;  i               2   28[COMRAM] unsigned int 
  3847 ;;  i               2   26[COMRAM] unsigned int 
  3848 ;;  arr            17    5[COMRAM] unsigned char [17]
  3849 ;; Return value:  Size  Location     Type
  3850 ;;                  1    wreg      void 
  3851 ;; Registers used:
  3852 ;;		wreg, fsr0l, fsr0h, fsr2l, fsr2h, status,2, status,0, tblptrl, tblptrh, tblptru, cstack
  3853 ;; Tracked objects:
  3854 ;;		On entry : 0/0
  3855 ;;		On exit  : 0/0
  3856 ;;		Unchanged: 0/0
  3857 ;; Data sizes:     COMRAM   BANK0   BANK1   BANK2   BANK3   BANK4   BANK5
  3858 ;;      Params:         0       0       0       0       0       0       0
  3859 ;;      Locals:        33       0       0       0       0       0       0
  3860 ;;      Temps:          0       0       0       0       0       0       0
  3861 ;;      Totals:        33       0       0       0       0       0       0
  3862 ;;Total ram usage:       33 bytes
  3863 ;; Hardware stack levels used: 1
  3864 ;; Hardware stack levels required when called: 5
  3865 ;; This function calls:
  3866 ;;		_clcd_print
  3867 ;;		_clcd_write
  3868 ;;		_init_uart
  3869 ;;		_puts
  3870 ;;		_read_24c02
  3871 ;; This function is called by:
  3872 ;;		_main
  3873 ;; This function uses a non-reentrant model
  3874 ;;
  3875                           
  3876                           	psect	text13
  3877   001228                     __ptext13:
  3878                           	callstack 0
  3879   001228                     _download_log:
  3880                           	callstack 25
  3881   001228                     
  3882                           ;blackbox.c: 377:     init_uart();
  3883   001228  EC11  F014         	call	_init_uart	;wreg free
  3884   00122C                     
  3885                           ;blackbox.c: 378:     char arr[17];;blackbox.c: 379:     if (no_event == 0)
  3886   00122C  5048               	movf	_no_event^0,w,c
  3887   00122E  1049               	iorwf	(_no_event+1)^0,w,c
  3888   001230  A4D8               	btfss	status,2,c
  3889   001232  EF1D  F009         	goto	u3571
  3890   001236  EF1F  F009         	goto	u3570
  3891   00123A                     u3571:
  3892   00123A  EF49  F009         	goto	l4977
  3893   00123E                     u3570:
  3894   00123E                     
  3895                           ;blackbox.c: 380:     {;blackbox.c: 381:         puts("LOG EMPTY");
  3896   00123E  0EC8               	movlw	low STR_11
  3897   001240  6E02               	movwf	puts@s^0,c
  3898   001242  0E2F               	movlw	high STR_11
  3899   001244  6E03               	movwf	(puts@s+1)^0,c
  3900   001246  EC46  F012         	call	_puts	;wreg free
  3901   00124A                     
  3902                           ;blackbox.c: 382:         for (unsigned int i = 0; i < 4000; i++)
  3903   00124A  0E00               	movlw	0
  3904   00124C  6E1C               	movwf	(download_log@i+1)^0,c
  3905   00124E  0E00               	movlw	0
  3906   001250  6E1B               	movwf	download_log@i^0,c
  3907   001252                     l4967:
  3908                           
  3909                           ;blackbox.c: 383:              clcd_print("Empty log", (0x80 + (0)));
  3910   001252  0ED2               	movlw	low STR_12
  3911   001254  6E03               	movwf	clcd_print@data^0,c
  3912   001256  0E2F               	movlw	high STR_12
  3913   001258  6E04               	movwf	(clcd_print@data+1)^0,c
  3914   00125A  0E80               	movlw	128
  3915   00125C  6E05               	movwf	clcd_print@addr^0,c
  3916   00125E  ECAE  F011         	call	_clcd_print	;wreg free
  3917   001262  4A1B               	infsnz	download_log@i^0,f,c
  3918   001264  2A1C               	incf	(download_log@i+1)^0,f,c
  3919   001266  0EA0               	movlw	160
  3920   001268  5C1B               	subwf	download_log@i^0,w,c
  3921   00126A  0E0F               	movlw	15
  3922   00126C  581C               	subwfb	(download_log@i+1)^0,w,c
  3923   00126E  A0D8               	btfss	status,0,c
  3924   001270  EF3C  F009         	goto	u3581
  3925   001274  EF3E  F009         	goto	u3580
  3926   001278                     u3581:
  3927   001278  EF29  F009         	goto	l4967
  3928   00127C                     u3580:
  3929   00127C                     
  3930                           ;blackbox.c: 384:         main_flag = 1;
  3931   00127C  0E00               	movlw	0
  3932   00127E  6E4D               	movwf	(_main_flag+1)^0,c
  3933   001280  0E01               	movlw	1
  3934   001282  6E4C               	movwf	_main_flag^0,c
  3935   001284                     
  3936                           ;blackbox.c: 385:         clcd_write(0x01, 0);
  3937   001284  0E00               	movlw	0
  3938   001286  6E01               	movwf	clcd_write@control_bit^0,c
  3939   001288  0E01               	movlw	1
  3940   00128A  EC63  F013         	call	_clcd_write
  3941                           
  3942                           ;blackbox.c: 386:     }
  3943   00128E  EF48  F00A         	goto	l916
  3944   001292                     l4977:
  3945                           
  3946                           ;blackbox.c: 388:     {;blackbox.c: 389:         for (unsigned int i = 0; i < 6000; i++)
      +                          ;
  3947   001292  0E00               	movlw	0
  3948   001294  6E1E               	movwf	(download_log@i_683+1)^0,c
  3949   001296  0E00               	movlw	0
  3950   001298  6E1D               	movwf	download_log@i_683^0,c
  3951   00129A                     l4983:
  3952   00129A  4A1D               	infsnz	download_log@i_683^0,f,c
  3953   00129C  2A1E               	incf	(download_log@i_683+1)^0,f,c
  3954   00129E  0E70               	movlw	112
  3955   0012A0  5C1D               	subwf	download_log@i_683^0,w,c
  3956   0012A2  0E17               	movlw	23
  3957   0012A4  581E               	subwfb	(download_log@i_683+1)^0,w,c
  3958   0012A6  A0D8               	btfss	status,0,c
  3959   0012A8  EF58  F009         	goto	u3591
  3960   0012AC  EF5A  F009         	goto	u3590
  3961   0012B0                     u3591:
  3962   0012B0  EF4D  F009         	goto	l4983
  3963   0012B4                     u3590:
  3964   0012B4                     
  3965                           ;blackbox.c: 390:         {;blackbox.c: 391:             clcd_print("DOWNLOADING", (0x80
      +                           + (3)));
  3966   0012B4  0EA5               	movlw	low STR_13
  3967   0012B6  6E03               	movwf	clcd_print@data^0,c
  3968   0012B8  0E2F               	movlw	high STR_13
  3969   0012BA  6E04               	movwf	(clcd_print@data+1)^0,c
  3970   0012BC  0E83               	movlw	131
  3971   0012BE  6E05               	movwf	clcd_print@addr^0,c
  3972   0012C0  ECAE  F011         	call	_clcd_print	;wreg free
  3973                           
  3974                           ;blackbox.c: 392:             clcd_print("LOGS...", (0xC0 + (3)));
  3975   0012C4  0EE5               	movlw	low STR_14
  3976   0012C6  6E03               	movwf	clcd_print@data^0,c
  3977   0012C8  0E2F               	movlw	high STR_14
  3978   0012CA  6E04               	movwf	(clcd_print@data+1)^0,c
  3979   0012CC  0EC3               	movlw	195
  3980   0012CE  6E05               	movwf	clcd_print@addr^0,c
  3981   0012D0  ECAE  F011         	call	_clcd_print	;wreg free
  3982   0012D4                     
  3983                           ;blackbox.c: 393:         };blackbox.c: 394:         for (int i = 0; i < no_event; i++)
  3984   0012D4  0E00               	movlw	0
  3985   0012D6  6E20               	movwf	(download_log@i_686+1)^0,c
  3986   0012D8  0E00               	movlw	0
  3987   0012DA  6E1F               	movwf	download_log@i_686^0,c
  3988   0012DC  EF16  F00A         	goto	l5051
  3989   0012E0                     l4991:
  3990                           
  3991                           ;blackbox.c: 395:         {;blackbox.c: 396:             arr[0] = i + 48;
  3992   0012E0  501F               	movf	download_log@i_686^0,w,c
  3993   0012E2  0F30               	addlw	48
  3994   0012E4  6E06               	movwf	download_log@arr^0,c
  3995   0012E6                     
  3996                           ;blackbox.c: 397:             arr[1] = ' ';
  3997   0012E6  0E20               	movlw	32
  3998   0012E8  6E07               	movwf	(download_log@arr+1)^0,c
  3999   0012EA                     
  4000                           ;blackbox.c: 398:             for (int j = 2; j < 10; j++)
  4001   0012EA  0E00               	movlw	0
  4002   0012EC  6E24               	movwf	(download_log@j+1)^0,c
  4003   0012EE  0E02               	movlw	2
  4004   0012F0  6E23               	movwf	download_log@j^0,c
  4005   0012F2                     l4999:
  4006                           
  4007                           ;blackbox.c: 399:             {;blackbox.c: 400:                 if (j == 4 || j == 7)
  4008   0012F2  0E04               	movlw	4
  4009   0012F4  1823               	xorwf	download_log@j^0,w,c
  4010   0012F6  1024               	iorwf	(download_log@j+1)^0,w,c
  4011   0012F8  B4D8               	btfsc	status,2,c
  4012   0012FA  EF81  F009         	goto	u3601
  4013   0012FE  EF83  F009         	goto	u3600
  4014   001302                     u3601:
  4015   001302  EF8D  F009         	goto	l5003
  4016   001306                     u3600:
  4017   001306  0E07               	movlw	7
  4018   001308  1823               	xorwf	download_log@j^0,w,c
  4019   00130A  1024               	iorwf	(download_log@j+1)^0,w,c
  4020   00130C  A4D8               	btfss	status,2,c
  4021   00130E  EF8B  F009         	goto	u3611
  4022   001312  EF8D  F009         	goto	u3610
  4023   001316                     u3611:
  4024   001316  EF95  F009         	goto	l5005
  4025   00131A                     u3610:
  4026   00131A                     l5003:
  4027                           
  4028                           ;blackbox.c: 401:                 {;blackbox.c: 402:                     arr[j] = ':';
  4029   00131A  5023               	movf	download_log@j^0,w,c
  4030   00131C  0F06               	addlw	low download_log@arr
  4031   00131E  6ED9               	movwf	fsr2l,c
  4032   001320  6ADA               	clrf	fsr2h,c
  4033   001322  0E3A               	movlw	58
  4034   001324  6EDF               	movwf	indf2,c
  4035                           
  4036                           ;blackbox.c: 403:                 }
  4037   001326  EFA0  F009         	goto	l5011
  4038   00132A                     l5005:
  4039                           
  4040                           ;blackbox.c: 405:                 {;blackbox.c: 406:                     data = read_24c
      +                          02(add++);
  4041   00132A  5056               	movf	_add^0,w,c
  4042   00132C  EC80  F013         	call	_read_24c02
  4043   001330  6E5A               	movwf	_data^0,c
  4044   001332  2A56               	incf	_add^0,f,c
  4045   001334                     
  4046                           ;blackbox.c: 407:                     arr[j] = data;
  4047   001334  5023               	movf	download_log@j^0,w,c
  4048   001336  0F06               	addlw	low download_log@arr
  4049   001338  6ED9               	movwf	fsr2l,c
  4050   00133A  6ADA               	clrf	fsr2h,c
  4051   00133C  C05A  FFDF         	movff	_data,indf2
  4052   001340                     l5011:
  4053                           
  4054                           ;blackbox.c: 409:             }
  4055   001340  4A23               	infsnz	download_log@j^0,f,c
  4056   001342  2A24               	incf	(download_log@j+1)^0,f,c
  4057   001344  BE24               	btfsc	(download_log@j+1)^0,7,c
  4058   001346  EFAE  F009         	goto	u3621
  4059   00134A  5024               	movf	(download_log@j+1)^0,w,c
  4060   00134C  E109               	bnz	u3620
  4061   00134E  0E0A               	movlw	10
  4062   001350  5C23               	subwf	download_log@j^0,w,c
  4063   001352  A0D8               	btfss	status,0,c
  4064   001354  EFAE  F009         	goto	u3621
  4065   001358  EFB0  F009         	goto	u3620
  4066   00135C                     u3621:
  4067   00135C  EF79  F009         	goto	l4999
  4068   001360                     u3620:
  4069   001360                     
  4070                           ;blackbox.c: 410:             for (int k = 10; k < 16; k++)
  4071   001360  0E00               	movlw	0
  4072   001362  6E26               	movwf	(download_log@k+1)^0,c
  4073   001364  0E0A               	movlw	10
  4074   001366  6E25               	movwf	download_log@k^0,c
  4075   001368                     l5021:
  4076                           
  4077                           ;blackbox.c: 411:             {;blackbox.c: 412:                 if(k==10||k==13)
  4078   001368  0E0A               	movlw	10
  4079   00136A  1825               	xorwf	download_log@k^0,w,c
  4080   00136C  1026               	iorwf	(download_log@k+1)^0,w,c
  4081   00136E  B4D8               	btfsc	status,2,c
  4082   001370  EFBC  F009         	goto	u3631
  4083   001374  EFBE  F009         	goto	u3630
  4084   001378                     u3631:
  4085   001378  EFC8  F009         	goto	l5025
  4086   00137C                     u3630:
  4087   00137C  0E0D               	movlw	13
  4088   00137E  1825               	xorwf	download_log@k^0,w,c
  4089   001380  1026               	iorwf	(download_log@k+1)^0,w,c
  4090   001382  A4D8               	btfss	status,2,c
  4091   001384  EFC6  F009         	goto	u3641
  4092   001388  EFC8  F009         	goto	u3640
  4093   00138C                     u3641:
  4094   00138C  EFD0  F009         	goto	l5027
  4095   001390                     u3640:
  4096   001390                     l5025:
  4097                           
  4098                           ;blackbox.c: 413:                 {;blackbox.c: 414:                     arr[k]=' ';
  4099   001390  5025               	movf	download_log@k^0,w,c
  4100   001392  0F06               	addlw	low download_log@arr
  4101   001394  6ED9               	movwf	fsr2l,c
  4102   001396  6ADA               	clrf	fsr2h,c
  4103   001398  0E20               	movlw	32
  4104   00139A  6EDF               	movwf	indf2,c
  4105                           
  4106                           ;blackbox.c: 415:                 }
  4107   00139C  EFDB  F009         	goto	l5033
  4108   0013A0                     l5027:
  4109                           
  4110                           ;blackbox.c: 417:                 {;blackbox.c: 418:                     data = read_24c
      +                          02(add++);
  4111   0013A0  5056               	movf	_add^0,w,c
  4112   0013A2  EC80  F013         	call	_read_24c02
  4113   0013A6  6E5A               	movwf	_data^0,c
  4114   0013A8  2A56               	incf	_add^0,f,c
  4115   0013AA                     
  4116                           ;blackbox.c: 419:                     arr[k] = data;
  4117   0013AA  5025               	movf	download_log@k^0,w,c
  4118   0013AC  0F06               	addlw	low download_log@arr
  4119   0013AE  6ED9               	movwf	fsr2l,c
  4120   0013B0  6ADA               	clrf	fsr2h,c
  4121   0013B2  C05A  FFDF         	movff	_data,indf2
  4122   0013B6                     l5033:
  4123                           
  4124                           ;blackbox.c: 421:             }
  4125   0013B6  4A25               	infsnz	download_log@k^0,f,c
  4126   0013B8  2A26               	incf	(download_log@k+1)^0,f,c
  4127   0013BA  BE26               	btfsc	(download_log@k+1)^0,7,c
  4128   0013BC  EFE9  F009         	goto	u3651
  4129   0013C0  5026               	movf	(download_log@k+1)^0,w,c
  4130   0013C2  E109               	bnz	u3650
  4131   0013C4  0E10               	movlw	16
  4132   0013C6  5C25               	subwf	download_log@k^0,w,c
  4133   0013C8  A0D8               	btfss	status,0,c
  4134   0013CA  EFE9  F009         	goto	u3651
  4135   0013CE  EFEB  F009         	goto	u3650
  4136   0013D2                     u3651:
  4137   0013D2  EFB4  F009         	goto	l5021
  4138   0013D6                     u3650:
  4139   0013D6                     
  4140                           ;blackbox.c: 422:             arr[16] = '\0';
  4141   0013D6  0E00               	movlw	0
  4142   0013D8  6E16               	movwf	(download_log@arr+16)^0,c
  4143   0013DA                     
  4144                           ;blackbox.c: 423:             puts(arr);
  4145   0013DA  0E06               	movlw	low download_log@arr
  4146   0013DC  6E02               	movwf	puts@s^0,c
  4147   0013DE  6A03               	clrf	(puts@s+1)^0,c
  4148   0013E0  EC46  F012         	call	_puts	;wreg free
  4149   0013E4                     
  4150                           ;blackbox.c: 424:             puts("\n\r");
  4151   0013E4  0EF9               	movlw	low STR_15
  4152   0013E6  6E02               	movwf	puts@s^0,c
  4153   0013E8  0E2F               	movlw	high STR_15
  4154   0013EA  6E03               	movwf	(puts@s+1)^0,c
  4155   0013EC  EC46  F012         	call	_puts	;wreg free
  4156                           
  4157                           ;blackbox.c: 425:             for(unsigned long int i=0;i<5000;i++);
  4158   0013F0  0E00               	movlw	0
  4159   0013F2  6E17               	movwf	download_log@i_690^0,c
  4160   0013F4  0E00               	movlw	0
  4161   0013F6  6E18               	movwf	(download_log@i_690+1)^0,c
  4162   0013F8  0E00               	movlw	0
  4163   0013FA  6E19               	movwf	(download_log@i_690+2)^0,c
  4164   0013FC  0E00               	movlw	0
  4165   0013FE  6E1A               	movwf	(download_log@i_690+3)^0,c
  4166   001400                     l5047:
  4167   001400  0E01               	movlw	1
  4168   001402  2617               	addwf	download_log@i_690^0,f,c
  4169   001404  0E00               	movlw	0
  4170   001406  2218               	addwfc	(download_log@i_690+1)^0,f,c
  4171   001408  2219               	addwfc	(download_log@i_690+2)^0,f,c
  4172   00140A  221A               	addwfc	(download_log@i_690+3)^0,f,c
  4173   00140C  501A               	movf	(download_log@i_690+3)^0,w,c
  4174   00140E  1019               	iorwf	(download_log@i_690+2)^0,w,c
  4175   001410  E10B               	bnz	u3660
  4176   001412  0E88               	movlw	136
  4177   001414  5C17               	subwf	download_log@i_690^0,w,c
  4178   001416  0E13               	movlw	19
  4179   001418  5818               	subwfb	(download_log@i_690+1)^0,w,c
  4180   00141A  A0D8               	btfss	status,0,c
  4181   00141C  EF12  F00A         	goto	u3661
  4182   001420  EF14  F00A         	goto	u3660
  4183   001424                     u3661:
  4184   001424  EF00  F00A         	goto	l5047
  4185   001428                     u3660:
  4186   001428                     
  4187                           ;blackbox.c: 426:         }
  4188   001428  4A1F               	infsnz	download_log@i_686^0,f,c
  4189   00142A  2A20               	incf	(download_log@i_686+1)^0,f,c
  4190   00142C                     l5051:
  4191   00142C  5048               	movf	_no_event^0,w,c
  4192   00142E  5C1F               	subwf	download_log@i_686^0,w,c
  4193   001430  5049               	movf	(_no_event+1)^0,w,c
  4194   001432  5820               	subwfb	(download_log@i_686+1)^0,w,c
  4195   001434  A0D8               	btfss	status,0,c
  4196   001436  EF1F  F00A         	goto	u3671
  4197   00143A  EF21  F00A         	goto	u3670
  4198   00143E                     u3671:
  4199   00143E  EF70  F009         	goto	l4991
  4200   001442                     u3670:
  4201   001442                     
  4202                           ;blackbox.c: 427:         clcd_write(0x01, 0);
  4203   001442  0E00               	movlw	0
  4204   001444  6E01               	movwf	clcd_write@control_bit^0,c
  4205   001446  0E01               	movlw	1
  4206   001448  EC63  F013         	call	_clcd_write
  4207   00144C                     
  4208                           ;blackbox.c: 428:         main_flag = 1;
  4209   00144C  0E00               	movlw	0
  4210   00144E  6E4D               	movwf	(_main_flag+1)^0,c
  4211   001450  0E01               	movlw	1
  4212   001452  6E4C               	movwf	_main_flag^0,c
  4213   001454                     
  4214                           ;blackbox.c: 429:         for(unsigned int i=0;i<4000;i++);
  4215   001454  0E00               	movlw	0
  4216   001456  6E22               	movwf	(download_log@i_691+1)^0,c
  4217   001458  0E00               	movlw	0
  4218   00145A  6E21               	movwf	download_log@i_691^0,c
  4219   00145C                     l5063:
  4220   00145C  4A21               	infsnz	download_log@i_691^0,f,c
  4221   00145E  2A22               	incf	(download_log@i_691+1)^0,f,c
  4222   001460  0EA0               	movlw	160
  4223   001462  5C21               	subwf	download_log@i_691^0,w,c
  4224   001464  0E0F               	movlw	15
  4225   001466  5822               	subwfb	(download_log@i_691+1)^0,w,c
  4226   001468  A0D8               	btfss	status,0,c
  4227   00146A  EF39  F00A         	goto	u3681
  4228   00146E  EF3B  F00A         	goto	u3680
  4229   001472                     u3681:
  4230   001472  EF2E  F00A         	goto	l5063
  4231   001476                     u3680:
  4232   001476                     
  4233                           ;blackbox.c: 430:         {;blackbox.c: 431:             clcd_print("DOWNLOAD DONE", (0x
      +                          80 + (1)));
  4234   001476  0E70               	movlw	low STR_16
  4235   001478  6E03               	movwf	clcd_print@data^0,c
  4236   00147A  0E2F               	movlw	high STR_16
  4237   00147C  6E04               	movwf	(clcd_print@data+1)^0,c
  4238   00147E  0E81               	movlw	129
  4239   001480  6E05               	movwf	clcd_print@addr^0,c
  4240   001482  ECAE  F011         	call	_clcd_print	;wreg free
  4241   001486                     
  4242                           ;blackbox.c: 432:         };blackbox.c: 433:         clcd_write(0x01, 0);
  4243   001486  0E00               	movlw	0
  4244   001488  6E01               	movwf	clcd_write@control_bit^0,c
  4245   00148A  0E01               	movlw	1
  4246   00148C  EC63  F013         	call	_clcd_write
  4247   001490                     l916:
  4248   001490  0012               	return		;funcret
  4249   001492                     __end_of_download_log:
  4250                           	callstack 0
  4251                           
  4252 ;; *************** function _read_24c02 *****************
  4253 ;; Defined at:
  4254 ;;		line 12 in file "blackbox.c"
  4255 ;; Parameters:    Size  Location     Type
  4256 ;;  address         1    wreg     unsigned char 
  4257 ;; Auto vars:     Size  Location     Type
  4258 ;;  address         1    1[COMRAM] unsigned char 
  4259 ;;  data            1    2[COMRAM] unsigned char 
  4260 ;; Return value:  Size  Location     Type
  4261 ;;                  1    wreg      unsigned char 
  4262 ;; Registers used:
  4263 ;;		wreg, status,2, cstack
  4264 ;; Tracked objects:
  4265 ;;		On entry : 0/0
  4266 ;;		On exit  : 0/0
  4267 ;;		Unchanged: 0/0
  4268 ;; Data sizes:     COMRAM   BANK0   BANK1   BANK2   BANK3   BANK4   BANK5
  4269 ;;      Params:         0       0       0       0       0       0       0
  4270 ;;      Locals:         2       0       0       0       0       0       0
  4271 ;;      Temps:          0       0       0       0       0       0       0
  4272 ;;      Totals:         2       0       0       0       0       0       0
  4273 ;;Total ram usage:        2 bytes
  4274 ;; Hardware stack levels used: 1
  4275 ;; Hardware stack levels required when called: 4
  4276 ;; This function calls:
  4277 ;;		_i2c_read
  4278 ;;		_i2c_rep_start
  4279 ;;		_i2c_start
  4280 ;;		_i2c_stop
  4281 ;;		_i2c_write
  4282 ;; This function is called by:
  4283 ;;		_init_config
  4284 ;;		_view_log
  4285 ;;		_download_log
  4286 ;; This function uses a non-reentrant model
  4287 ;;
  4288                           
  4289                           	psect	text14
  4290   002700                     __ptext14:
  4291                           	callstack 0
  4292   002700                     _read_24c02:
  4293                           	callstack 25
  4294                           
  4295                           ;incstack = 0
  4296                           ;read_24c02@address stored from wreg
  4297   002700  6E02               	movwf	read_24c02@address^0,c
  4298   002702                     
  4299                           ;blackbox.c: 12: unsigned char read_24c02(unsigned char address);blackbox.c: 13: {;black
      +                          box.c: 14:  unsigned char data;;blackbox.c: 16:  i2c_start();
  4300   002702  EC3B  F014         	call	_i2c_start	;wreg free
  4301   002706                     
  4302                           ;blackbox.c: 17:  i2c_write(0xA0);
  4303   002706  0EA0               	movlw	160
  4304   002708  EC29  F014         	call	_i2c_write
  4305   00270C                     
  4306                           ;blackbox.c: 18:  i2c_write(address);
  4307   00270C  5002               	movf	read_24c02@address^0,w,c
  4308   00270E  EC29  F014         	call	_i2c_write
  4309   002712                     
  4310                           ;blackbox.c: 19:  i2c_rep_start();
  4311   002712  EC2F  F014         	call	_i2c_rep_start	;wreg free
  4312   002716                     
  4313                           ;blackbox.c: 20:  i2c_write(0xA1);
  4314   002716  0EA1               	movlw	161
  4315   002718  EC29  F014         	call	_i2c_write
  4316                           
  4317                           ;blackbox.c: 21:  data = i2c_read();
  4318   00271C  EC23  F014         	call	_i2c_read	;wreg free
  4319   002720  6E03               	movwf	read_24c02@data^0,c
  4320   002722                     
  4321                           ;blackbox.c: 22:  i2c_stop();
  4322   002722  EC37  F014         	call	_i2c_stop	;wreg free
  4323                           
  4324                           ;blackbox.c: 24:  return data;
  4325   002726  5003               	movf	read_24c02@data^0,w,c
  4326   002728  0012               	return		;funcret
  4327   00272A                     __end_of_read_24c02:
  4328                           	callstack 0
  4329                           
  4330 ;; *************** function _puts *****************
  4331 ;; Defined at:
  4332 ;;		line 39 in file "uart.c"
  4333 ;; Parameters:    Size  Location     Type
  4334 ;;  s               2    1[COMRAM] PTR const unsigned char 
  4335 ;;		 -> STR_15(3), download_log@arr(17), STR_11(10), 
  4336 ;; Auto vars:     Size  Location     Type
  4337 ;;		None
  4338 ;; Return value:  Size  Location     Type
  4339 ;;                  2    1[COMRAM] int 
  4340 ;; Registers used:
  4341 ;;		wreg, fsr0l, fsr0h, status,2, status,0, tblptrl, tblptrh, tblptru, cstack
  4342 ;; Tracked objects:
  4343 ;;		On entry : 0/0
  4344 ;;		On exit  : 0/0
  4345 ;;		Unchanged: 0/0
  4346 ;; Data sizes:     COMRAM   BANK0   BANK1   BANK2   BANK3   BANK4   BANK5
  4347 ;;      Params:         2       0       0       0       0       0       0
  4348 ;;      Locals:         0       0       0       0       0       0       0
  4349 ;;      Temps:          0       0       0       0       0       0       0
  4350 ;;      Totals:         2       0       0       0       0       0       0
  4351 ;;Total ram usage:        2 bytes
  4352 ;; Hardware stack levels used: 1
  4353 ;; Hardware stack levels required when called: 2
  4354 ;; This function calls:
  4355 ;;		_putch
  4356 ;; This function is called by:
  4357 ;;		_download_log
  4358 ;; This function uses a non-reentrant model
  4359 ;;
  4360                           
  4361                           	psect	text15
  4362   00248C                     __ptext15:
  4363                           	callstack 0
  4364   00248C                     _puts:
  4365                           	callstack 27
  4366   00248C                     
  4367                           ;uart.c: 39: int puts(const char *s);uart.c: 40: {;uart.c: 41:  while(*s)
  4368   00248C  EF5C  F012         	goto	l4351
  4369   002490                     l4347:
  4370                           
  4371                           ;uart.c: 42:  {;uart.c: 43:   putch(*s++);
  4372   002490  C002  FFF6         	movff	puts@s,tblptrl
  4373   002494  C003  FFF7         	movff	puts@s+1,tblptrh
  4374   002498  6AF8               	clrf	tblptru,c
  4375   00249A  0E05               	movlw	(high __ramtop+-1)
  4376   00249C  64F7               	cpfsgt	tblptrh,c
  4377   00249E  D003               	bra	u2617
  4378   0024A0  0008               	tblrd		*
  4379   0024A2  50F5               	movf	tablat,w,c
  4380   0024A4  D005               	bra	u2610
  4381   0024A6                     u2617:
  4382   0024A6  CFF6 FFE9          	movff	tblptrl,fsr0l
  4383   0024AA  CFF7 FFEA          	movff	tblptrh,fsr0h
  4384   0024AE  50EF               	movf	indf0,w,c
  4385   0024B0                     u2610:
  4386   0024B0  ECFD  F013         	call	_putch
  4387   0024B4  4A02               	infsnz	puts@s^0,f,c
  4388   0024B6  2A03               	incf	(puts@s+1)^0,f,c
  4389   0024B8                     l4351:
  4390                           
  4391                           ;uart.c: 41:  while(*s)
  4392   0024B8  C002  FFF6         	movff	puts@s,tblptrl
  4393   0024BC  C003  FFF7         	movff	puts@s+1,tblptrh
  4394   0024C0  6AF8               	clrf	tblptru,c
  4395   0024C2  0E05               	movlw	(high __ramtop+-1)
  4396   0024C4  64F7               	cpfsgt	tblptrh,c
  4397   0024C6  D003               	bra	u2627
  4398   0024C8  0008               	tblrd		*
  4399   0024CA  50F5               	movf	tablat,w,c
  4400   0024CC  D005               	bra	u2620
  4401   0024CE                     u2627:
  4402   0024CE  CFF6 FFE9          	movff	tblptrl,fsr0l
  4403   0024D2  CFF7 FFEA          	movff	tblptrh,fsr0h
  4404   0024D6  50EF               	movf	indf0,w,c
  4405   0024D8                     u2620:
  4406   0024D8  0900               	iorlw	0
  4407   0024DA  A4D8               	btfss	status,2,c
  4408   0024DC  EF72  F012         	goto	u2631
  4409   0024E0  EF74  F012         	goto	u2630
  4410   0024E4                     u2631:
  4411   0024E4  EF48  F012         	goto	l4347
  4412   0024E8                     u2630:
  4413   0024E8  0012               	return		;funcret
  4414   0024EA                     __end_of_puts:
  4415                           	callstack 0
  4416                           
  4417 ;; *************** function _putch *****************
  4418 ;; Defined at:
  4419 ;;		line 28 in file "uart.c"
  4420 ;; Parameters:    Size  Location     Type
  4421 ;;  byte            1    wreg     unsigned char 
  4422 ;; Auto vars:     Size  Location     Type
  4423 ;;  byte            1    0[COMRAM] unsigned char 
  4424 ;; Return value:  Size  Location     Type
  4425 ;;                  1    wreg      void 
  4426 ;; Registers used:
  4427 ;;		wreg
  4428 ;; Tracked objects:
  4429 ;;		On entry : 0/0
  4430 ;;		On exit  : 0/0
  4431 ;;		Unchanged: 0/0
  4432 ;; Data sizes:     COMRAM   BANK0   BANK1   BANK2   BANK3   BANK4   BANK5
  4433 ;;      Params:         0       0       0       0       0       0       0
  4434 ;;      Locals:         1       0       0       0       0       0       0
  4435 ;;      Temps:          0       0       0       0       0       0       0
  4436 ;;      Totals:         1       0       0       0       0       0       0
  4437 ;;Total ram usage:        1 bytes
  4438 ;; Hardware stack levels used: 1
  4439 ;; Hardware stack levels required when called: 1
  4440 ;; This function calls:
  4441 ;;		Nothing
  4442 ;; This function is called by:
  4443 ;;		_puts
  4444 ;;		_getche
  4445 ;; This function uses a non-reentrant model
  4446 ;;
  4447                           
  4448                           	psect	text16
  4449   0027FA                     __ptext16:
  4450                           	callstack 0
  4451   0027FA                     _putch:
  4452                           	callstack 27
  4453                           
  4454                           ;incstack = 0
  4455                           ;putch@byte stored from wreg
  4456   0027FA  6E01               	movwf	putch@byte^0,c
  4457   0027FC                     l1593:
  4458                           
  4459                           ;uart.c: 32:  while(!TXIF)
  4460   0027FC  A89E               	btfss	3998,4,c	;volatile
  4461   0027FE  EF03  F014         	goto	u2281
  4462   002802  EF05  F014         	goto	u2280
  4463   002806                     u2281:
  4464   002806  EFFE  F013         	goto	l1593
  4465   00280A                     u2280:
  4466   00280A                     
  4467                           ;uart.c: 36:  TXREG = byte;
  4468   00280A  C001  FFAD         	movff	putch@byte,4013	;volatile
  4469   00280E  0012               	return		;funcret
  4470   002810                     __end_of_putch:
  4471                           	callstack 0
  4472                           
  4473 ;; *************** function _init_uart *****************
  4474 ;; Defined at:
  4475 ;;		line 3 in file "uart.c"
  4476 ;; Parameters:    Size  Location     Type
  4477 ;;		None
  4478 ;; Auto vars:     Size  Location     Type
  4479 ;;		None
  4480 ;; Return value:  Size  Location     Type
  4481 ;;                  1    wreg      void 
  4482 ;; Registers used:
  4483 ;;		wreg, status,2
  4484 ;; Tracked objects:
  4485 ;;		On entry : 0/0
  4486 ;;		On exit  : 0/0
  4487 ;;		Unchanged: 0/0
  4488 ;; Data sizes:     COMRAM   BANK0   BANK1   BANK2   BANK3   BANK4   BANK5
  4489 ;;      Params:         0       0       0       0       0       0       0
  4490 ;;      Locals:         0       0       0       0       0       0       0
  4491 ;;      Temps:          0       0       0       0       0       0       0
  4492 ;;      Totals:         0       0       0       0       0       0       0
  4493 ;;Total ram usage:        0 bytes
  4494 ;; Hardware stack levels used: 1
  4495 ;; Hardware stack levels required when called: 1
  4496 ;; This function calls:
  4497 ;;		Nothing
  4498 ;; This function is called by:
  4499 ;;		_download_log
  4500 ;; This function uses a non-reentrant model
  4501 ;;
  4502                           
  4503                           	psect	text17
  4504   002822                     __ptext17:
  4505                           	callstack 0
  4506   002822                     _init_uart:
  4507                           	callstack 28
  4508   002822                     
  4509                           ;uart.c: 6:  TRISC7 = 1;
  4510   002822  8E94               	bsf	3988,7,c	;volatile
  4511                           
  4512                           ;uart.c: 7:  TRISC6 = 0;
  4513   002824  9C94               	bcf	3988,6,c	;volatile
  4514                           
  4515                           ;uart.c: 10:  BRGH = 1;
  4516   002826  84AC               	bsf	4012,2,c	;volatile
  4517                           
  4518                           ;uart.c: 11:  SPEN = 1;
  4519   002828  8EAB               	bsf	4011,7,c	;volatile
  4520                           
  4521                           ;uart.c: 15:  CREN = 1;
  4522   00282A  88AB               	bsf	4011,4,c	;volatile
  4523   00282C                     
  4524                           ;uart.c: 21:  SPBRG = 129;
  4525   00282C  0E81               	movlw	129
  4526   00282E  6EAF               	movwf	175,c	;volatile
  4527   002830                     
  4528                           ;uart.c: 23:     RCIE = 1;
  4529   002830  8A9D               	bsf	3997,5,c	;volatile
  4530   002832  0012               	return		;funcret
  4531   002834                     __end_of_init_uart:
  4532                           	callstack 0
  4533                           
  4534 ;; *************** function _disp_menu *****************
  4535 ;; Defined at:
  4536 ;;		line 227 in file "blackbox.c"
  4537 ;; Parameters:    Size  Location     Type
  4538 ;;		None
  4539 ;; Auto vars:     Size  Location     Type
  4540 ;;		None
  4541 ;; Return value:  Size  Location     Type
  4542 ;;                  1    wreg      void 
  4543 ;; Registers used:
  4544 ;;		wreg, fsr0l, fsr0h, status,2, status,0, tblptrl, tblptrh, tblptru, cstack
  4545 ;; Tracked objects:
  4546 ;;		On entry : 0/0
  4547 ;;		On exit  : 0/0
  4548 ;;		Unchanged: 0/0
  4549 ;; Data sizes:     COMRAM   BANK0   BANK1   BANK2   BANK3   BANK4   BANK5
  4550 ;;      Params:         0       0       0       0       0       0       0
  4551 ;;      Locals:         0       0       0       0       0       0       0
  4552 ;;      Temps:          2       0       0       0       0       0       0
  4553 ;;      Totals:         2       0       0       0       0       0       0
  4554 ;;Total ram usage:        2 bytes
  4555 ;; Hardware stack levels used: 1
  4556 ;; Hardware stack levels required when called: 3
  4557 ;; This function calls:
  4558 ;;		_clcd_print
  4559 ;;		_clcd_putch
  4560 ;;		_clcd_write
  4561 ;;		_open_option
  4562 ;; This function is called by:
  4563 ;;		_main
  4564 ;; This function uses a non-reentrant model
  4565 ;;
  4566                           
  4567                           	psect	text18
  4568   0018CE                     __ptext18:
  4569                           	callstack 0
  4570   0018CE                     _disp_menu:
  4571                           	callstack 27
  4572   0018CE                     
  4573                           ;blackbox.c: 229:     if(star_flag==0)
  4574   0018CE  504E               	movf	_star_flag^0,w,c
  4575   0018D0  104F               	iorwf	(_star_flag+1)^0,w,c
  4576   0018D2  A4D8               	btfss	status,2,c
  4577   0018D4  EF6E  F00C         	goto	u3361
  4578   0018D8  EF70  F00C         	goto	u3360
  4579   0018DC                     u3361:
  4580   0018DC  EF7C  F00C         	goto	l4807
  4581   0018E0                     u3360:
  4582   0018E0                     
  4583                           ;blackbox.c: 230:     {;blackbox.c: 231:         clcd_putch('*',(0x80 + (0)));
  4584   0018E0  0E80               	movlw	128
  4585   0018E2  6E0D               	movwf	clcd_putch@addr^0,c
  4586   0018E4  0E2A               	movlw	42
  4587   0018E6  ECE6  F013         	call	_clcd_putch
  4588                           
  4589                           ;blackbox.c: 232:         clcd_putch(' ',(0xC0 + (0)));
  4590   0018EA  0EC0               	movlw	192
  4591   0018EC  6E0D               	movwf	clcd_putch@addr^0,c
  4592   0018EE  0E20               	movlw	32
  4593   0018F0  ECE6  F013         	call	_clcd_putch
  4594                           
  4595                           ;blackbox.c: 233:     }
  4596   0018F4  EF86  F00C         	goto	l4809
  4597   0018F8                     l4807:
  4598                           
  4599                           ;blackbox.c: 235:     {;blackbox.c: 236:         clcd_putch(' ',(0x80 + (0)));
  4600   0018F8  0E80               	movlw	128
  4601   0018FA  6E0D               	movwf	clcd_putch@addr^0,c
  4602   0018FC  0E20               	movlw	32
  4603   0018FE  ECE6  F013         	call	_clcd_putch
  4604                           
  4605                           ;blackbox.c: 237:         clcd_putch('*',(0xC0 + (0)));
  4606   001902  0EC0               	movlw	192
  4607   001904  6E0D               	movwf	clcd_putch@addr^0,c
  4608   001906  0E2A               	movlw	42
  4609   001908  ECE6  F013         	call	_clcd_putch
  4610   00190C                     l4809:
  4611                           
  4612                           ;blackbox.c: 239:     clcd_print(menu[main_count],(0x80 + (1)));
  4613   00190C  C04A  F00F         	movff	_main_count,??_disp_menu
  4614   001910  C04B  F010         	movff	_main_count+1,??_disp_menu+1
  4615   001914  3A0F               	swapf	??_disp_menu^0,f,c
  4616   001916  3A10               	swapf	(??_disp_menu+1)^0,f,c
  4617   001918  0EF0               	movlw	240
  4618   00191A  1610               	andwf	(??_disp_menu+1)^0,f,c
  4619   00191C  500F               	movf	??_disp_menu^0,w,c
  4620   00191E  0B0F               	andlw	15
  4621   001920  1210               	iorwf	(??_disp_menu+1)^0,f,c
  4622   001922  0EF0               	movlw	240
  4623   001924  160F               	andwf	??_disp_menu^0,f,c
  4624   001926  0E00               	movlw	low _menu
  4625   001928  240F               	addwf	??_disp_menu^0,w,c
  4626   00192A  6E03               	movwf	clcd_print@data^0,c
  4627   00192C  0E01               	movlw	high _menu
  4628   00192E  2010               	addwfc	(??_disp_menu+1)^0,w,c
  4629   001930  6E04               	movwf	(clcd_print@data+1)^0,c
  4630   001932  0E81               	movlw	129
  4631   001934  6E05               	movwf	clcd_print@addr^0,c
  4632   001936  ECAE  F011         	call	_clcd_print	;wreg free
  4633   00193A                     
  4634                           ;blackbox.c: 240:     clcd_print(menu[main_count+1],(0xC0 + (1)));
  4635   00193A  C04A  F00F         	movff	_main_count,??_disp_menu
  4636   00193E  C04B  F010         	movff	_main_count+1,??_disp_menu+1
  4637   001942  3A0F               	swapf	??_disp_menu^0,f,c
  4638   001944  3A10               	swapf	(??_disp_menu+1)^0,f,c
  4639   001946  0EF0               	movlw	240
  4640   001948  1610               	andwf	(??_disp_menu+1)^0,f,c
  4641   00194A  500F               	movf	??_disp_menu^0,w,c
  4642   00194C  0B0F               	andlw	15
  4643   00194E  1210               	iorwf	(??_disp_menu+1)^0,f,c
  4644   001950  0EF0               	movlw	240
  4645   001952  160F               	andwf	??_disp_menu^0,f,c
  4646   001954  0E10               	movlw	low (_menu+16)
  4647   001956  240F               	addwf	??_disp_menu^0,w,c
  4648   001958  6E03               	movwf	clcd_print@data^0,c
  4649   00195A  0E01               	movlw	high (_menu+16)
  4650   00195C  2010               	addwfc	(??_disp_menu+1)^0,w,c
  4651   00195E  6E04               	movwf	(clcd_print@data+1)^0,c
  4652   001960  0EC1               	movlw	193
  4653   001962  6E05               	movwf	clcd_print@addr^0,c
  4654   001964  ECAE  F011         	call	_clcd_print	;wreg free
  4655   001968                     
  4656                           ;blackbox.c: 241:     if(key==13)
  4657   001968  0E0D               	movlw	13
  4658   00196A  185C               	xorwf	_key^0,w,c
  4659   00196C  A4D8               	btfss	status,2,c
  4660   00196E  EFBB  F00C         	goto	u3371
  4661   001972  EFBD  F00C         	goto	u3370
  4662   001976                     u3371:
  4663   001976  EFD6  F00C         	goto	l4821
  4664   00197A                     u3370:
  4665   00197A                     
  4666                           ;blackbox.c: 242:     {;blackbox.c: 243:         if(star_flag==0)
  4667   00197A  504E               	movf	_star_flag^0,w,c
  4668   00197C  104F               	iorwf	(_star_flag+1)^0,w,c
  4669   00197E  A4D8               	btfss	status,2,c
  4670   001980  EFC4  F00C         	goto	u3381
  4671   001984  EFC6  F00C         	goto	u3380
  4672   001988                     u3381:
  4673   001988  EFCE  F00C         	goto	l4819
  4674   00198C                     u3380:
  4675   00198C                     
  4676                           ;blackbox.c: 244:         {;blackbox.c: 245:             open_option(main_count);
  4677   00198C  C04A  F003         	movff	_main_count,open_option@num
  4678   001990  C04B  F004         	movff	_main_count+1,open_option@num+1
  4679   001994  EC26  F010         	call	_open_option	;wreg free
  4680                           
  4681                           ;blackbox.c: 246:         }
  4682   001998  EFD6  F00C         	goto	l4821
  4683   00199C                     l4819:
  4684                           
  4685                           ;blackbox.c: 248:         {;blackbox.c: 249:             open_option(main_count+1);
  4686   00199C  0E01               	movlw	1
  4687   00199E  244A               	addwf	_main_count^0,w,c
  4688   0019A0  6E03               	movwf	open_option@num^0,c
  4689   0019A2  0E00               	movlw	0
  4690   0019A4  204B               	addwfc	(_main_count+1)^0,w,c
  4691   0019A6  6E04               	movwf	(open_option@num+1)^0,c
  4692   0019A8  EC26  F010         	call	_open_option	;wreg free
  4693   0019AC                     l4821:
  4694                           
  4695                           ;blackbox.c: 252:     if(key == 12)
  4696   0019AC  0E0C               	movlw	12
  4697   0019AE  185C               	xorwf	_key^0,w,c
  4698   0019B0  A4D8               	btfss	status,2,c
  4699   0019B2  EFDD  F00C         	goto	u3391
  4700   0019B6  EFDF  F00C         	goto	u3390
  4701   0019BA                     u3391:
  4702   0019BA  EF05  F00D         	goto	l4835
  4703   0019BE                     u3390:
  4704   0019BE                     
  4705                           ;blackbox.c: 253:     {;blackbox.c: 254:         menu_flag=1;
  4706   0019BE  0E00               	movlw	0
  4707   0019C0  0100               	movlb	0	; () banked
  4708   0019C2  6F89               	movwf	(_menu_flag+1)& (0+255),b
  4709   0019C4  0E01               	movlw	1
  4710   0019C6  6F88               	movwf	_menu_flag& (0+255),b
  4711   0019C8                     
  4712                           ; BSR set to: 0
  4713                           ;blackbox.c: 255:         if(star_flag==0)
  4714   0019C8  504E               	movf	_star_flag^0,w,c
  4715   0019CA  104F               	iorwf	(_star_flag+1)^0,w,c
  4716   0019CC  A4D8               	btfss	status,2,c
  4717   0019CE  EFEB  F00C         	goto	u3401
  4718   0019D2  EFED  F00C         	goto	u3400
  4719   0019D6                     u3401:
  4720   0019D6  EFF3  F00C         	goto	l4829
  4721   0019DA                     u3400:
  4722   0019DA                     
  4723                           ; BSR set to: 0
  4724                           ;blackbox.c: 256:         {;blackbox.c: 257:             star_flag=1;
  4725   0019DA  0E00               	movlw	0
  4726   0019DC  6E4F               	movwf	(_star_flag+1)^0,c
  4727   0019DE  0E01               	movlw	1
  4728   0019E0  6E4E               	movwf	_star_flag^0,c
  4729                           
  4730                           ;blackbox.c: 258:         }
  4731   0019E2  EF05  F00D         	goto	l4835
  4732   0019E6                     l4829:
  4733                           
  4734                           ; BSR set to: 0
  4735   0019E6  504B               	movf	(_main_count+1)^0,w,c
  4736   0019E8  E107               	bnz	u3411
  4737   0019EA  0E03               	movlw	3
  4738   0019EC  5C4A               	subwf	_main_count^0,w,c
  4739   0019EE  B0D8               	btfsc	status,0,c
  4740   0019F0  EFFC  F00C         	goto	u3411
  4741   0019F4  EFFE  F00C         	goto	u3410
  4742   0019F8                     u3411:
  4743   0019F8  EF05  F00D         	goto	l4835
  4744   0019FC                     u3410:
  4745   0019FC                     
  4746                           ; BSR set to: 0
  4747                           ;blackbox.c: 260:         {;blackbox.c: 261:             main_count++;
  4748   0019FC  4A4A               	infsnz	_main_count^0,f,c
  4749   0019FE  2A4B               	incf	(_main_count+1)^0,f,c
  4750   001A00                     
  4751                           ; BSR set to: 0
  4752                           ;blackbox.c: 262:             clcd_write(0x01, 0);
  4753   001A00  0E00               	movlw	0
  4754   001A02  6E01               	movwf	clcd_write@control_bit^0,c
  4755   001A04  0E01               	movlw	1
  4756   001A06  EC63  F013         	call	_clcd_write
  4757   001A0A                     l4835:
  4758                           
  4759                           ;blackbox.c: 265:     if(key==11)
  4760   001A0A  0E0B               	movlw	11
  4761   001A0C  185C               	xorwf	_key^0,w,c
  4762   001A0E  A4D8               	btfss	status,2,c
  4763   001A10  EF0C  F00D         	goto	u3421
  4764   001A14  EF0E  F00D         	goto	u3420
  4765   001A18                     u3421:
  4766   001A18  EF33  F00D         	goto	l4849
  4767   001A1C                     u3420:
  4768   001A1C                     
  4769                           ;blackbox.c: 266:     {;blackbox.c: 267:         menu_flag=1;
  4770   001A1C  0E00               	movlw	0
  4771   001A1E  0100               	movlb	0	; () banked
  4772   001A20  6F89               	movwf	(_menu_flag+1)& (0+255),b
  4773   001A22  0E01               	movlw	1
  4774   001A24  6F88               	movwf	_menu_flag& (0+255),b
  4775   001A26                     
  4776                           ; BSR set to: 0
  4777                           ;blackbox.c: 268:         if(star_flag==1)
  4778   001A26  044E               	decf	_star_flag^0,w,c
  4779   001A28  104F               	iorwf	(_star_flag+1)^0,w,c
  4780   001A2A  A4D8               	btfss	status,2,c
  4781   001A2C  EF1A  F00D         	goto	u3431
  4782   001A30  EF1C  F00D         	goto	u3430
  4783   001A34                     u3431:
  4784   001A34  EF22  F00D         	goto	l4843
  4785   001A38                     u3430:
  4786   001A38                     
  4787                           ; BSR set to: 0
  4788                           ;blackbox.c: 269:         {;blackbox.c: 270:             star_flag=0;
  4789   001A38  0E00               	movlw	0
  4790   001A3A  6E4F               	movwf	(_star_flag+1)^0,c
  4791   001A3C  0E00               	movlw	0
  4792   001A3E  6E4E               	movwf	_star_flag^0,c
  4793                           
  4794                           ;blackbox.c: 271:         }
  4795   001A40  EF33  F00D         	goto	l4849
  4796   001A44                     l4843:
  4797                           
  4798                           ; BSR set to: 0
  4799   001A44  504A               	movf	_main_count^0,w,c
  4800   001A46  104B               	iorwf	(_main_count+1)^0,w,c
  4801   001A48  B4D8               	btfsc	status,2,c
  4802   001A4A  EF29  F00D         	goto	u3441
  4803   001A4E  EF2B  F00D         	goto	u3440
  4804   001A52                     u3441:
  4805   001A52  EF33  F00D         	goto	l4849
  4806   001A56                     u3440:
  4807   001A56                     
  4808                           ; BSR set to: 0
  4809                           ;blackbox.c: 273:         {;blackbox.c: 274:             main_count--;
  4810   001A56  064A               	decf	_main_count^0,f,c
  4811   001A58  A0D8               	btfss	status,0,c
  4812   001A5A  064B               	decf	(_main_count+1)^0,f,c
  4813   001A5C                     
  4814                           ; BSR set to: 0
  4815                           ;blackbox.c: 275:             clcd_write(0x01, 0);
  4816   001A5C  0E00               	movlw	0
  4817   001A5E  6E01               	movwf	clcd_write@control_bit^0,c
  4818   001A60  0E01               	movlw	1
  4819   001A62  EC63  F013         	call	_clcd_write
  4820   001A66                     l4849:
  4821                           
  4822                           ;blackbox.c: 278:     if(key==14)
  4823   001A66  0E0E               	movlw	14
  4824   001A68  185C               	xorwf	_key^0,w,c
  4825   001A6A  A4D8               	btfss	status,2,c
  4826   001A6C  EF3A  F00D         	goto	u3451
  4827   001A70  EF3C  F00D         	goto	u3450
  4828   001A74                     u3451:
  4829   001A74  EF4A  F00D         	goto	l860
  4830   001A78                     u3450:
  4831   001A78                     
  4832                           ;blackbox.c: 279:     {;blackbox.c: 280:         main_flag=0;
  4833   001A78  0E00               	movlw	0
  4834   001A7A  6E4D               	movwf	(_main_flag+1)^0,c
  4835   001A7C  0E00               	movlw	0
  4836   001A7E  6E4C               	movwf	_main_flag^0,c
  4837                           
  4838                           ;blackbox.c: 281:         key_flag=0;
  4839   001A80  0E00               	movlw	0
  4840   001A82  0100               	movlb	0	; () banked
  4841   001A84  6F8B               	movwf	(_key_flag+1)& (0+255),b
  4842   001A86  0E00               	movlw	0
  4843   001A88  6F8A               	movwf	_key_flag& (0+255),b
  4844   001A8A                     
  4845                           ; BSR set to: 0
  4846                           ;blackbox.c: 282:         clcd_write(0x01, 0);
  4847   001A8A  0E00               	movlw	0
  4848   001A8C  6E01               	movwf	clcd_write@control_bit^0,c
  4849   001A8E  0E01               	movlw	1
  4850   001A90  EC63  F013         	call	_clcd_write
  4851   001A94                     l860:
  4852   001A94  0012               	return		;funcret
  4853   001A96                     __end_of_disp_menu:
  4854                           	callstack 0
  4855                           
  4856 ;; *************** function _open_option *****************
  4857 ;; Defined at:
  4858 ;;		line 286 in file "blackbox.c"
  4859 ;; Parameters:    Size  Location     Type
  4860 ;;  num             2    2[COMRAM] int 
  4861 ;; Auto vars:     Size  Location     Type
  4862 ;;		None
  4863 ;; Return value:  Size  Location     Type
  4864 ;;                  1    wreg      void 
  4865 ;; Registers used:
  4866 ;;		wreg, status,2, status,0, cstack
  4867 ;; Tracked objects:
  4868 ;;		On entry : 0/0
  4869 ;;		On exit  : 0/0
  4870 ;;		Unchanged: 0/0
  4871 ;; Data sizes:     COMRAM   BANK0   BANK1   BANK2   BANK3   BANK4   BANK5
  4872 ;;      Params:         2       0       0       0       0       0       0
  4873 ;;      Locals:         0       0       0       0       0       0       0
  4874 ;;      Temps:          2       0       0       0       0       0       0
  4875 ;;      Totals:         4       0       0       0       0       0       0
  4876 ;;Total ram usage:        4 bytes
  4877 ;; Hardware stack levels used: 1
  4878 ;; Hardware stack levels required when called: 2
  4879 ;; This function calls:
  4880 ;;		_clcd_write
  4881 ;; This function is called by:
  4882 ;;		_disp_menu
  4883 ;; This function uses a non-reentrant model
  4884 ;;
  4885                           
  4886                           	psect	text19
  4887   00204C                     __ptext19:
  4888                           	callstack 0
  4889   00204C                     _open_option:
  4890                           	callstack 27
  4891   00204C                     
  4892                           ;blackbox.c: 286: void open_option(int num);blackbox.c: 287: {;blackbox.c: 288:     swit
      +                          ch(num)
  4893   00204C  EF46  F010         	goto	l4331
  4894   002050                     l4319:
  4895                           
  4896                           ;blackbox.c: 291:             main_flag=2;
  4897   002050  0E00               	movlw	0
  4898   002052  6E4D               	movwf	(_main_flag+1)^0,c
  4899   002054  0E02               	movlw	2
  4900   002056  6E4C               	movwf	_main_flag^0,c
  4901                           
  4902                           ;blackbox.c: 292:             break;
  4903   002058  EF68  F010         	goto	l4333
  4904   00205C                     l4321:
  4905                           
  4906                           ;blackbox.c: 294:             main_flag=3;
  4907   00205C  0E00               	movlw	0
  4908   00205E  6E4D               	movwf	(_main_flag+1)^0,c
  4909   002060  0E03               	movlw	3
  4910   002062  6E4C               	movwf	_main_flag^0,c
  4911                           
  4912                           ;blackbox.c: 295:             break;
  4913   002064  EF68  F010         	goto	l4333
  4914   002068                     l4323:
  4915                           
  4916                           ;blackbox.c: 297:             main_flag=4;
  4917   002068  0E00               	movlw	0
  4918   00206A  6E4D               	movwf	(_main_flag+1)^0,c
  4919   00206C  0E04               	movlw	4
  4920   00206E  6E4C               	movwf	_main_flag^0,c
  4921                           
  4922                           ;blackbox.c: 298:             break;
  4923   002070  EF68  F010         	goto	l4333
  4924   002074                     l4325:
  4925                           
  4926                           ;blackbox.c: 300:             main_flag=5;
  4927   002074  0E00               	movlw	0
  4928   002076  6E4D               	movwf	(_main_flag+1)^0,c
  4929   002078  0E05               	movlw	5
  4930   00207A  6E4C               	movwf	_main_flag^0,c
  4931                           
  4932                           ;blackbox.c: 301:             break;
  4933   00207C  EF68  F010         	goto	l4333
  4934   002080                     l4327:
  4935                           
  4936                           ;blackbox.c: 303:             main_flag=6;
  4937   002080  0E00               	movlw	0
  4938   002082  6E4D               	movwf	(_main_flag+1)^0,c
  4939   002084  0E06               	movlw	6
  4940   002086  6E4C               	movwf	_main_flag^0,c
  4941                           
  4942                           ;blackbox.c: 304:             break;
  4943   002088  EF68  F010         	goto	l4333
  4944   00208C                     l4331:
  4945   00208C  C003  F005         	movff	open_option@num,??_open_option
  4946   002090  C004  F006         	movff	open_option@num+1,??_open_option+1
  4947                           
  4948                           ; Switch on 2 bytes has been partitioned into a top level switch of size 1, and 1 sub-sw
      +                          itches
  4949                           ; Switch size 1, requested type "simple"
  4950                           ; Number of cases is 1, Range of values is 0 to 0
  4951                           ; switch strategies available:
  4952                           ; Name         Instructions Cycles
  4953                           ; simple_byte            4     3 (average)
  4954                           ;	Chosen strategy is simple_byte
  4955   002094  5006               	movf	(??_open_option+1)^0,w,c
  4956   002096  0A00               	xorlw	0	; case 0
  4957   002098  B4D8               	btfsc	status,2,c
  4958   00209A  EF51  F010         	goto	l5529
  4959   00209E  EF68  F010         	goto	l4333
  4960   0020A2                     l5529:
  4961                           
  4962                           ; Switch size 1, requested type "simple"
  4963                           ; Number of cases is 5, Range of values is 0 to 4
  4964                           ; switch strategies available:
  4965                           ; Name         Instructions Cycles
  4966                           ; simple_byte           16     9 (average)
  4967                           ;	Chosen strategy is simple_byte
  4968   0020A2  5005               	movf	??_open_option^0,w,c
  4969   0020A4  0A00               	xorlw	0	; case 0
  4970   0020A6  B4D8               	btfsc	status,2,c
  4971   0020A8  EF28  F010         	goto	l4319
  4972   0020AC  0A01               	xorlw	1	; case 1
  4973   0020AE  B4D8               	btfsc	status,2,c
  4974   0020B0  EF2E  F010         	goto	l4321
  4975   0020B4  0A03               	xorlw	3	; case 2
  4976   0020B6  B4D8               	btfsc	status,2,c
  4977   0020B8  EF34  F010         	goto	l4323
  4978   0020BC  0A01               	xorlw	1	; case 3
  4979   0020BE  B4D8               	btfsc	status,2,c
  4980   0020C0  EF3A  F010         	goto	l4325
  4981   0020C4  0A07               	xorlw	7	; case 4
  4982   0020C6  B4D8               	btfsc	status,2,c
  4983   0020C8  EF40  F010         	goto	l4327
  4984   0020CC  EF68  F010         	goto	l4333
  4985   0020D0                     l4333:
  4986                           
  4987                           ;blackbox.c: 307:     clcd_write(0x01, 0);
  4988   0020D0  0E00               	movlw	0
  4989   0020D2  6E01               	movwf	clcd_write@control_bit^0,c
  4990   0020D4  0E01               	movlw	1
  4991   0020D6  EC63  F013         	call	_clcd_write
  4992   0020DA  0012               	return		;funcret
  4993   0020DC                     __end_of_open_option:
  4994                           	callstack 0
  4995                           
  4996 ;; *************** function _dashboard *****************
  4997 ;; Defined at:
  4998 ;;		line 52 in file "blackbox.c"
  4999 ;; Parameters:    Size  Location     Type
  5000 ;;		None
  5001 ;; Auto vars:     Size  Location     Type
  5002 ;;		None
  5003 ;; Return value:  Size  Location     Type
  5004 ;;                  1    wreg      void 
  5005 ;; Registers used:
  5006 ;;		wreg, fsr0l, fsr0h, fsr2l, fsr2h, status,2, status,0, tblptrl, tblptrh, tblptru, prodl, prodh, cstack
  5007 ;; Tracked objects:
  5008 ;;		On entry : 0/0
  5009 ;;		On exit  : 0/0
  5010 ;;		Unchanged: 0/0
  5011 ;; Data sizes:     COMRAM   BANK0   BANK1   BANK2   BANK3   BANK4   BANK5
  5012 ;;      Params:         0       0       0       0       0       0       0
  5013 ;;      Locals:         0       0       0       0       0       0       0
  5014 ;;      Temps:          1       0       0       0       0       0       0
  5015 ;;      Totals:         1       0       0       0       0       0       0
  5016 ;;Total ram usage:        1 bytes
  5017 ;; Hardware stack levels used: 1
  5018 ;; Hardware stack levels required when called: 6
  5019 ;; This function calls:
  5020 ;;		___fldiv
  5021 ;;		___fltol
  5022 ;;		___lwdiv
  5023 ;;		___lwmod
  5024 ;;		___xxtofl
  5025 ;;		_clcd_print
  5026 ;;		_clcd_putch
  5027 ;;		_event_capture
  5028 ;;		_get_time
  5029 ;;		_read_adc
  5030 ;; This function is called by:
  5031 ;;		_main
  5032 ;; This function uses a non-reentrant model
  5033 ;;
  5034                           
  5035                           	psect	text20
  5036   0016C4                     __ptext20:
  5037                           	callstack 0
  5038   0016C4                     _dashboard:
  5039                           	callstack 24
  5040   0016C4                     
  5041                           ;blackbox.c: 54:     get_time();
  5042   0016C4  ECB5  F010         	call	_get_time	;wreg free
  5043   0016C8                     
  5044                           ;blackbox.c: 55:     clcd_print("TIME    EV  SP",(0x80 + (2)));
  5045   0016C8  0E25               	movlw	low STR_1
  5046   0016CA  6E03               	movwf	clcd_print@data^0,c
  5047   0016CC  0E2F               	movlw	high STR_1
  5048   0016CE  6E04               	movwf	(clcd_print@data+1)^0,c
  5049   0016D0  0E82               	movlw	130
  5050   0016D2  6E05               	movwf	clcd_print@addr^0,c
  5051   0016D4  ECAE  F011         	call	_clcd_print	;wreg free
  5052   0016D8                     
  5053                           ;blackbox.c: 56:     clcd_print(time,(0xC0 + (0)));
  5054   0016D8  0E90               	movlw	low _time
  5055   0016DA  6E03               	movwf	clcd_print@data^0,c
  5056   0016DC  6A04               	clrf	(clcd_print@data+1)^0,c
  5057   0016DE  0EC0               	movlw	192
  5058   0016E0  6E05               	movwf	clcd_print@addr^0,c
  5059   0016E2  ECAE  F011         	call	_clcd_print	;wreg free
  5060                           
  5061                           ;blackbox.c: 57:     speed_val=((read_adc(0x04))/10.25);
  5062   0016E6  0E00               	movlw	0
  5063   0016E8  6E1A               	movwf	___fldiv@a^0,c
  5064   0016EA  0E00               	movlw	0
  5065   0016EC  6E1B               	movwf	(___fldiv@a+1)^0,c
  5066   0016EE  0E24               	movlw	36
  5067   0016F0  6E1C               	movwf	(___fldiv@a+2)^0,c
  5068   0016F2  0E41               	movlw	65
  5069   0016F4  6E1D               	movwf	(___fldiv@a+3)^0,c
  5070   0016F6  0E04               	movlw	4
  5071   0016F8  EC40  F013         	call	_read_adc
  5072   0016FC  C001  F008         	movff	?_read_adc,___xxtofl@val
  5073   001700  C002  F009         	movff	?_read_adc+1,___xxtofl@val+1
  5074   001704  6A0A               	clrf	(___xxtofl@val+2)^0,c
  5075   001706  6A0B               	clrf	(___xxtofl@val+3)^0,c
  5076   001708  0E00               	movlw	0
  5077   00170A  EC4B  F00D         	call	___xxtofl
  5078   00170E  C008  F016         	movff	?___xxtofl,___fldiv@b
  5079   001712  C009  F017         	movff	?___xxtofl+1,___fldiv@b+1
  5080   001716  C00A  F018         	movff	?___xxtofl+2,___fldiv@b+2
  5081   00171A  C00B  F019         	movff	?___xxtofl+3,___fldiv@b+3
  5082   00171E  EC34  F004         	call	___fldiv	;wreg free
  5083   001722  C016  F02F         	movff	?___fldiv,___fltol@f1
  5084   001726  C017  F030         	movff	?___fldiv+1,___fltol@f1+1
  5085   00172A  C018  F031         	movff	?___fldiv+2,___fltol@f1+2
  5086   00172E  C019  F032         	movff	?___fldiv+3,___fltol@f1+3
  5087   001732  EC4F  F00F         	call	___fltol	;wreg free
  5088   001736  C02F  F050         	movff	?___fltol,_speed_val
  5089   00173A  C030  F051         	movff	?___fltol+1,_speed_val+1
  5090   00173E                     
  5091                           ;blackbox.c: 58:     secs=0;
  5092   00173E  0E00               	movlw	0
  5093   001740  0100               	movlb	0	; () banked
  5094   001742  6F77               	movwf	(_secs+1)& (0+255),b
  5095   001744  0E00               	movlw	0
  5096   001746  6F76               	movwf	_secs& (0+255),b
  5097   001748                     
  5098                           ; BSR set to: 0
  5099                           ;blackbox.c: 60:     if(key == 1 && delay<1)
  5100   001748  045C               	decf	_key^0,w,c
  5101   00174A  A4D8               	btfss	status,2,c
  5102   00174C  EFAA  F00B         	goto	u3101
  5103   001750  EFAC  F00B         	goto	u3100
  5104   001754                     u3101:
  5105   001754  EFD7  F00B         	goto	l4659
  5106   001758                     u3100:
  5107   001758                     
  5108                           ; BSR set to: 0
  5109   001758  5042               	movf	_delay^0,w,c
  5110   00175A  1043               	iorwf	(_delay+1)^0,w,c
  5111   00175C  1044               	iorwf	(_delay+2)^0,w,c
  5112   00175E  1045               	iorwf	(_delay+3)^0,w,c
  5113   001760  A4D8               	btfss	status,2,c
  5114   001762  EFB5  F00B         	goto	u3111
  5115   001766  EFB7  F00B         	goto	u3110
  5116   00176A                     u3111:
  5117   00176A  EFD7  F00B         	goto	l4659
  5118   00176E                     u3110:
  5119   00176E                     
  5120                           ; BSR set to: 0
  5121                           ;blackbox.c: 61:     {;blackbox.c: 62:         if(i==7)
  5122   00176E  0E07               	movlw	7
  5123   001770  1852               	xorwf	_i^0,w,c
  5124   001772  1053               	iorwf	(_i+1)^0,w,c
  5125   001774  A4D8               	btfss	status,2,c
  5126   001776  EFBF  F00B         	goto	u3121
  5127   00177A  EFC1  F00B         	goto	u3120
  5128   00177E                     u3121:
  5129   00177E  EFC9  F00B         	goto	l4653
  5130   001782                     u3120:
  5131   001782                     
  5132                           ; BSR set to: 0
  5133                           ;blackbox.c: 63:         {;blackbox.c: 64:             i=1;
  5134   001782  0E00               	movlw	0
  5135   001784  6E53               	movwf	(_i+1)^0,c
  5136   001786  0E01               	movlw	1
  5137   001788  6E52               	movwf	_i^0,c
  5138   00178A                     l4651:
  5139                           
  5140                           ;blackbox.c: 65:             event_capture();
  5141   00178A  EC25  F00E         	call	_event_capture	;wreg free
  5142                           
  5143                           ;blackbox.c: 66:         }
  5144   00178E  EF3A  F00C         	goto	l4687
  5145   001792                     l4653:
  5146                           
  5147                           ; BSR set to: 0
  5148   001792  0E06               	movlw	6
  5149   001794  1852               	xorwf	_i^0,w,c
  5150   001796  1053               	iorwf	(_i+1)^0,w,c
  5151   001798  B4D8               	btfsc	status,2,c
  5152   00179A  EFD1  F00B         	goto	u3131
  5153   00179E  EFD3  F00B         	goto	u3130
  5154   0017A2                     u3131:
  5155   0017A2  EF3A  F00C         	goto	l4687
  5156   0017A6                     u3130:
  5157   0017A6                     
  5158                           ; BSR set to: 0
  5159                           ;blackbox.c: 68:         {;blackbox.c: 69:             i++;
  5160   0017A6  4A52               	infsnz	_i^0,f,c
  5161   0017A8  2A53               	incf	(_i+1)^0,f,c
  5162   0017AA  EFC5  F00B         	goto	l4651
  5163   0017AE                     l4659:
  5164                           
  5165                           ; BSR set to: 0
  5166   0017AE  0E02               	movlw	2
  5167   0017B0  185C               	xorwf	_key^0,w,c
  5168   0017B2  A4D8               	btfss	status,2,c
  5169   0017B4  EFDE  F00B         	goto	u3141
  5170   0017B8  EFE0  F00B         	goto	u3140
  5171   0017BC                     u3141:
  5172   0017BC  EF16  F00C         	goto	l4677
  5173   0017C0                     u3140:
  5174   0017C0                     
  5175                           ; BSR set to: 0
  5176   0017C0  5042               	movf	_delay^0,w,c
  5177   0017C2  1043               	iorwf	(_delay+1)^0,w,c
  5178   0017C4  1044               	iorwf	(_delay+2)^0,w,c
  5179   0017C6  1045               	iorwf	(_delay+3)^0,w,c
  5180   0017C8  A4D8               	btfss	status,2,c
  5181   0017CA  EFE9  F00B         	goto	u3151
  5182   0017CE  EFEB  F00B         	goto	u3150
  5183   0017D2                     u3151:
  5184   0017D2  EF16  F00C         	goto	l4677
  5185   0017D6                     u3150:
  5186   0017D6                     
  5187                           ; BSR set to: 0
  5188                           ;blackbox.c: 74:     {;blackbox.c: 75:         if(i==7)
  5189   0017D6  0E07               	movlw	7
  5190   0017D8  1852               	xorwf	_i^0,w,c
  5191   0017DA  1053               	iorwf	(_i+1)^0,w,c
  5192   0017DC  A4D8               	btfss	status,2,c
  5193   0017DE  EFF3  F00B         	goto	u3161
  5194   0017E2  EFF5  F00B         	goto	u3160
  5195   0017E6                     u3161:
  5196   0017E6  EFFB  F00B         	goto	l4669
  5197   0017EA                     u3160:
  5198   0017EA                     
  5199                           ; BSR set to: 0
  5200                           ;blackbox.c: 76:         {;blackbox.c: 77:             i=1;
  5201   0017EA  0E00               	movlw	0
  5202   0017EC  6E53               	movwf	(_i+1)^0,c
  5203   0017EE  0E01               	movlw	1
  5204   0017F0  6E52               	movwf	_i^0,c
  5205   0017F2                     
  5206                           ; BSR set to: 0
  5207                           ;blackbox.c: 78:             event_capture();
  5208   0017F2  EC25  F00E         	call	_event_capture	;wreg free
  5209   0017F6                     l4669:
  5210                           
  5211                           ;blackbox.c: 80:         if(i!=1 && i>0)
  5212   0017F6  0452               	decf	_i^0,w,c
  5213   0017F8  1053               	iorwf	(_i+1)^0,w,c
  5214   0017FA  B4D8               	btfsc	status,2,c
  5215   0017FC  EF02  F00C         	goto	u3171
  5216   001800  EF04  F00C         	goto	u3170
  5217   001804                     u3171:
  5218   001804  EF3A  F00C         	goto	l4687
  5219   001808                     u3170:
  5220   001808  BE53               	btfsc	(_i+1)^0,7,c
  5221   00180A  EF0F  F00C         	goto	u3181
  5222   00180E  5053               	movf	(_i+1)^0,w,c
  5223   001810  E108               	bnz	u3180
  5224   001812  0452               	decf	_i^0,w,c
  5225   001814  A0D8               	btfss	status,0,c
  5226   001816  EF0F  F00C         	goto	u3181
  5227   00181A  EF11  F00C         	goto	u3180
  5228   00181E                     u3181:
  5229   00181E  EF3A  F00C         	goto	l4687
  5230   001822                     u3180:
  5231   001822                     
  5232                           ;blackbox.c: 81:         {;blackbox.c: 82:             i--;
  5233   001822  0652               	decf	_i^0,f,c
  5234   001824  A0D8               	btfss	status,0,c
  5235   001826  0653               	decf	(_i+1)^0,f,c
  5236   001828  EFC5  F00B         	goto	l4651
  5237   00182C                     l4677:
  5238                           
  5239                           ; BSR set to: 0
  5240   00182C  0E03               	movlw	3
  5241   00182E  185C               	xorwf	_key^0,w,c
  5242   001830  A4D8               	btfss	status,2,c
  5243   001832  EF1D  F00C         	goto	u3191
  5244   001836  EF1F  F00C         	goto	u3190
  5245   00183A                     u3191:
  5246   00183A  EF3A  F00C         	goto	l4687
  5247   00183E                     u3190:
  5248   00183E                     
  5249                           ; BSR set to: 0
  5250   00183E  0E07               	movlw	7
  5251   001840  1852               	xorwf	_i^0,w,c
  5252   001842  1053               	iorwf	(_i+1)^0,w,c
  5253   001844  B4D8               	btfsc	status,2,c
  5254   001846  EF27  F00C         	goto	u3201
  5255   00184A  EF29  F00C         	goto	u3200
  5256   00184E                     u3201:
  5257   00184E  EF3A  F00C         	goto	l4687
  5258   001852                     u3200:
  5259   001852                     
  5260                           ; BSR set to: 0
  5261   001852  5042               	movf	_delay^0,w,c
  5262   001854  1043               	iorwf	(_delay+1)^0,w,c
  5263   001856  1044               	iorwf	(_delay+2)^0,w,c
  5264   001858  1045               	iorwf	(_delay+3)^0,w,c
  5265   00185A  A4D8               	btfss	status,2,c
  5266   00185C  EF32  F00C         	goto	u3211
  5267   001860  EF34  F00C         	goto	u3210
  5268   001864                     u3211:
  5269   001864  EF3A  F00C         	goto	l4687
  5270   001868                     u3210:
  5271   001868                     
  5272                           ; BSR set to: 0
  5273                           ;blackbox.c: 87:     {;blackbox.c: 88:         i=7;
  5274   001868  0E00               	movlw	0
  5275   00186A  6E53               	movwf	(_i+1)^0,c
  5276   00186C  0E07               	movlw	7
  5277   00186E  6E52               	movwf	_i^0,c
  5278   001870  EFC5  F00B         	goto	l4651
  5279   001874                     l4687:
  5280                           
  5281                           ;blackbox.c: 91:     clcd_print(gear[i],(0xC0 + (10)));
  5282   001874  5052               	movf	_i^0,w,c
  5283   001876  0D03               	mullw	3
  5284   001878  50F3               	movf	243,w,c
  5285   00187A  0FAF               	addlw	low _gear
  5286   00187C  6E39               	movwf	??_dashboard^0,c
  5287   00187E  C039  F003         	movff	??_dashboard,clcd_print@data
  5288   001882  6A04               	clrf	(clcd_print@data+1)^0,c
  5289   001884  0ECA               	movlw	202
  5290   001886  6E05               	movwf	clcd_print@addr^0,c
  5291   001888  ECAE  F011         	call	_clcd_print	;wreg free
  5292   00188C                     
  5293                           ;blackbox.c: 92:     clcd_putch(speed_val/10+'0',(0xC0 + (14)));
  5294   00188C  0ECE               	movlw	206
  5295   00188E  6E0D               	movwf	clcd_putch@addr^0,c
  5296   001890  C050  F001         	movff	_speed_val,___lwdiv@dividend
  5297   001894  C051  F002         	movff	_speed_val+1,___lwdiv@dividend+1
  5298   001898  0E00               	movlw	0
  5299   00189A  6E04               	movwf	(___lwdiv@divisor+1)^0,c
  5300   00189C  0E0A               	movlw	10
  5301   00189E  6E03               	movwf	___lwdiv@divisor^0,c
  5302   0018A0  EC74  F011         	call	___lwdiv	;wreg free
  5303   0018A4  5001               	movf	?___lwdiv^0,w,c
  5304   0018A6  0F30               	addlw	48
  5305   0018A8  ECE6  F013         	call	_clcd_putch
  5306   0018AC                     
  5307                           ;blackbox.c: 93:     clcd_putch(speed_val%10+'0',(0xC0 + (15)));
  5308   0018AC  0ECF               	movlw	207
  5309   0018AE  6E0D               	movwf	clcd_putch@addr^0,c
  5310   0018B0  C050  F008         	movff	_speed_val,___lwmod@dividend
  5311   0018B4  C051  F009         	movff	_speed_val+1,___lwmod@dividend+1
  5312   0018B8  0E00               	movlw	0
  5313   0018BA  6E0B               	movwf	(___lwmod@divisor+1)^0,c
  5314   0018BC  0E0A               	movlw	10
  5315   0018BE  6E0A               	movwf	___lwmod@divisor^0,c
  5316   0018C0  ECE4  F011         	call	___lwmod	;wreg free
  5317   0018C4  5008               	movf	?___lwmod^0,w,c
  5318   0018C6  0F30               	addlw	48
  5319   0018C8  ECE6  F013         	call	_clcd_putch
  5320   0018CC  0012               	return		;funcret
  5321   0018CE                     __end_of_dashboard:
  5322                           	callstack 0
  5323                           
  5324 ;; *************** function _read_adc *****************
  5325 ;; Defined at:
  5326 ;;		line 42 in file "adc.c"
  5327 ;; Parameters:    Size  Location     Type
  5328 ;;  channel         1    wreg     unsigned char 
  5329 ;; Auto vars:     Size  Location     Type
  5330 ;;  channel         1    6[COMRAM] unsigned char 
  5331 ;;  reg_val         2    4[COMRAM] unsigned short 
  5332 ;; Return value:  Size  Location     Type
  5333 ;;                  2    0[COMRAM] unsigned short 
  5334 ;; Registers used:
  5335 ;;		wreg, status,2, status,0
  5336 ;; Tracked objects:
  5337 ;;		On entry : 0/0
  5338 ;;		On exit  : 0/0
  5339 ;;		Unchanged: 0/0
  5340 ;; Data sizes:     COMRAM   BANK0   BANK1   BANK2   BANK3   BANK4   BANK5
  5341 ;;      Params:         2       0       0       0       0       0       0
  5342 ;;      Locals:         3       0       0       0       0       0       0
  5343 ;;      Temps:          2       0       0       0       0       0       0
  5344 ;;      Totals:         7       0       0       0       0       0       0
  5345 ;;Total ram usage:        7 bytes
  5346 ;; Hardware stack levels used: 1
  5347 ;; Hardware stack levels required when called: 1
  5348 ;; This function calls:
  5349 ;;		Nothing
  5350 ;; This function is called by:
  5351 ;;		_dashboard
  5352 ;; This function uses a non-reentrant model
  5353 ;;
  5354                           
  5355                           	psect	text21
  5356   002680                     __ptext21:
  5357                           	callstack 0
  5358   002680                     _read_adc:
  5359                           	callstack 28
  5360                           
  5361                           ;incstack = 0
  5362                           ;read_adc@channel stored from wreg
  5363   002680  6E07               	movwf	read_adc@channel^0,c
  5364   002682                     
  5365                           ;adc.c: 42: unsigned short read_adc(unsigned char channel);adc.c: 43: {;adc.c: 44:  unsi
      +                          gned short reg_val;;adc.c: 47:  ADCON0 = (ADCON0 & 0xC3) | (channel << 2);
  5366   002682  C007  F003         	movff	read_adc@channel,??_read_adc
  5367   002686  90D8               	bcf	status,0,c
  5368   002688  3603               	rlcf	??_read_adc^0,f,c
  5369   00268A  90D8               	bcf	status,0,c
  5370   00268C  3603               	rlcf	??_read_adc^0,f,c
  5371   00268E  50C2               	movf	194,w,c	;volatile
  5372   002690  0BC3               	andlw	195
  5373   002692  1003               	iorwf	??_read_adc^0,w,c
  5374   002694  6EC2               	movwf	194,c	;volatile
  5375   002696                     
  5376                           ;adc.c: 50:  GO = 1;
  5377   002696  82C2               	bsf	4034,1,c	;volatile
  5378   002698                     l262:
  5379   002698  B2C2               	btfsc	4034,1,c	;volatile
  5380   00269A  EF51  F013         	goto	u2471
  5381   00269E  EF53  F013         	goto	u2470
  5382   0026A2                     u2471:
  5383   0026A2  EF4C  F013         	goto	l262
  5384   0026A6                     u2470:
  5385   0026A6                     
  5386                           ;adc.c: 52:  reg_val = (ADRESH << 8) | ADRESL;
  5387   0026A6  50C3               	movf	195,w,c	;volatile
  5388   0026A8  CFC4 F003          	movff	4036,??_read_adc	;volatile
  5389   0026AC  6A04               	clrf	(??_read_adc+1)^0,c
  5390   0026AE  C003  F004         	movff	??_read_adc,??_read_adc+1
  5391   0026B2  6A03               	clrf	??_read_adc^0,c
  5392   0026B4  1003               	iorwf	??_read_adc^0,w,c
  5393   0026B6  6E05               	movwf	read_adc@reg_val^0,c
  5394   0026B8  5004               	movf	(??_read_adc+1)^0,w,c
  5395   0026BA  6E06               	movwf	(read_adc@reg_val+1)^0,c
  5396   0026BC                     
  5397                           ;adc.c: 54:  return reg_val;
  5398   0026BC  C005  F001         	movff	read_adc@reg_val,?_read_adc
  5399   0026C0  C006  F002         	movff	read_adc@reg_val+1,?_read_adc+1
  5400   0026C4  0012               	return		;funcret
  5401   0026C6                     __end_of_read_adc:
  5402                           	callstack 0
  5403                           
  5404 ;; *************** function _get_time *****************
  5405 ;; Defined at:
  5406 ;;		line 27 in file "blackbox.c"
  5407 ;; Parameters:    Size  Location     Type
  5408 ;;		None
  5409 ;; Auto vars:     Size  Location     Type
  5410 ;;		None
  5411 ;; Return value:  Size  Location     Type
  5412 ;;                  1    wreg      void 
  5413 ;; Registers used:
  5414 ;;		wreg, status,2, status,0, cstack
  5415 ;; Tracked objects:
  5416 ;;		On entry : 0/0
  5417 ;;		On exit  : 0/0
  5418 ;;		Unchanged: 0/0
  5419 ;; Data sizes:     COMRAM   BANK0   BANK1   BANK2   BANK3   BANK4   BANK5
  5420 ;;      Params:         0       0       0       0       0       0       0
  5421 ;;      Locals:         0       0       0       0       0       0       0
  5422 ;;      Temps:          0       0       0       0       0       0       0
  5423 ;;      Totals:         0       0       0       0       0       0       0
  5424 ;;Total ram usage:        0 bytes
  5425 ;; Hardware stack levels used: 1
  5426 ;; Hardware stack levels required when called: 5
  5427 ;; This function calls:
  5428 ;;		_read_ds1307
  5429 ;; This function is called by:
  5430 ;;		_dashboard
  5431 ;; This function uses a non-reentrant model
  5432 ;;
  5433                           
  5434                           	psect	text22
  5435   00216A                     __ptext22:
  5436                           	callstack 0
  5437   00216A                     _get_time:
  5438                           	callstack 24
  5439   00216A                     
  5440                           ;blackbox.c: 29:  clock_reg[0] = read_ds1307(0x02);
  5441   00216A  0E02               	movlw	2
  5442   00216C  EC95  F013         	call	_read_ds1307
  5443   002170  0100               	movlb	0	; () banked
  5444   002172  6F71               	movwf	_clock_reg& (0+255),b
  5445                           
  5446                           ;blackbox.c: 30:  clock_reg[1] = read_ds1307(0x01);
  5447   002174  0E01               	movlw	1
  5448   002176  EC95  F013         	call	_read_ds1307
  5449   00217A  0100               	movlb	0	; () banked
  5450   00217C  6F72               	movwf	(_clock_reg+1)& (0+255),b
  5451                           
  5452                           ;blackbox.c: 31:  clock_reg[2] = read_ds1307(0x00);
  5453   00217E  0E00               	movlw	0
  5454   002180  EC95  F013         	call	_read_ds1307
  5455   002184  0100               	movlb	0	; () banked
  5456   002186  6F73               	movwf	(_clock_reg+2)& (0+255),b
  5457   002188                     
  5458                           ; BSR set to: 0
  5459                           ;blackbox.c: 33:  if (clock_reg[0] & 0x40)
  5460   002188  AD71               	btfss	_clock_reg& (0+255),6,b
  5461   00218A  EFC9  F010         	goto	u2511
  5462   00218E  EFCB  F010         	goto	u2510
  5463   002192                     u2511:
  5464   002192  EFD6  F010         	goto	l4249
  5465   002196                     u2510:
  5466   002196                     
  5467                           ; BSR set to: 0
  5468                           ;blackbox.c: 34:  {;blackbox.c: 35:   time[0] = '0' + ((clock_reg[0] >> 4) & 0x01);
  5469   002196  3971               	swapf	_clock_reg& (0+255),w,b
  5470   002198  0B0F               	andlw	15
  5471   00219A  0B01               	andlw	1
  5472   00219C  0F30               	addlw	48
  5473   00219E  6F90               	movwf	_time& (0+255),b
  5474                           
  5475                           ;blackbox.c: 36:   time[1] = '0' + (clock_reg[0] & 0x0F);
  5476   0021A0  5171               	movf	_clock_reg& (0+255),w,b
  5477   0021A2  0B0F               	andlw	15
  5478   0021A4  0F30               	addlw	48
  5479   0021A6  6F91               	movwf	(_time+1)& (0+255),b
  5480                           
  5481                           ;blackbox.c: 37:  }
  5482   0021A8  EFDF  F010         	goto	l4251
  5483   0021AC                     l4249:
  5484                           
  5485                           ; BSR set to: 0
  5486                           ;blackbox.c: 39:  {;blackbox.c: 40:   time[0] = '0' + ((clock_reg[0] >> 4) & 0x03);
  5487   0021AC  3971               	swapf	_clock_reg& (0+255),w,b
  5488   0021AE  0B0F               	andlw	15
  5489   0021B0  0B03               	andlw	3
  5490   0021B2  0F30               	addlw	48
  5491   0021B4  6F90               	movwf	_time& (0+255),b
  5492                           
  5493                           ;blackbox.c: 41:   time[1] = '0' + (clock_reg[0] & 0x0F);
  5494   0021B6  5171               	movf	_clock_reg& (0+255),w,b
  5495   0021B8  0B0F               	andlw	15
  5496   0021BA  0F30               	addlw	48
  5497   0021BC  6F91               	movwf	(_time+1)& (0+255),b
  5498   0021BE                     l4251:
  5499                           
  5500                           ; BSR set to: 0
  5501                           ;blackbox.c: 43:  time[2] = ':';
  5502   0021BE  0E3A               	movlw	58
  5503   0021C0  6F92               	movwf	(_time+2)& (0+255),b
  5504   0021C2                     
  5505                           ; BSR set to: 0
  5506                           ;blackbox.c: 44:  time[3] = '0' + ((clock_reg[1] >> 4) & 0x0F);
  5507   0021C2  3972               	swapf	(_clock_reg+1)& (0+255),w,b
  5508   0021C4  0B0F               	andlw	15
  5509   0021C6  0B0F               	andlw	15
  5510   0021C8  0F30               	addlw	48
  5511   0021CA  6F93               	movwf	(_time+3)& (0+255),b
  5512   0021CC                     
  5513                           ; BSR set to: 0
  5514                           ;blackbox.c: 45:  time[4] = '0' + (clock_reg[1] & 0x0F);
  5515   0021CC  5172               	movf	(_clock_reg+1)& (0+255),w,b
  5516   0021CE  0B0F               	andlw	15
  5517   0021D0  0F30               	addlw	48
  5518   0021D2  6F94               	movwf	(_time+4)& (0+255),b
  5519   0021D4                     
  5520                           ; BSR set to: 0
  5521                           ;blackbox.c: 46:  time[5] = ':';
  5522   0021D4  0E3A               	movlw	58
  5523   0021D6  6F95               	movwf	(_time+5)& (0+255),b
  5524                           
  5525                           ;blackbox.c: 47:  time[6] = '0' + ((clock_reg[2] >> 4) & 0x0F);
  5526   0021D8  3973               	swapf	(_clock_reg+2)& (0+255),w,b
  5527   0021DA  0B0F               	andlw	15
  5528   0021DC  0B0F               	andlw	15
  5529   0021DE  0F30               	addlw	48
  5530   0021E0  6F96               	movwf	(_time+6)& (0+255),b
  5531                           
  5532                           ;blackbox.c: 48:  time[7] = '0' + (clock_reg[2] & 0x0F);
  5533   0021E2  5173               	movf	(_clock_reg+2)& (0+255),w,b
  5534   0021E4  0B0F               	andlw	15
  5535   0021E6  0F30               	addlw	48
  5536   0021E8  6F97               	movwf	(_time+7)& (0+255),b
  5537   0021EA                     
  5538                           ; BSR set to: 0
  5539                           ;blackbox.c: 49:  time[8] = '\0';
  5540   0021EA  0E00               	movlw	0
  5541   0021EC  6F98               	movwf	(_time+8)& (0+255),b
  5542   0021EE                     
  5543                           ; BSR set to: 0
  5544   0021EE  0012               	return		;funcret
  5545   0021F0                     __end_of_get_time:
  5546                           	callstack 0
  5547                           
  5548 ;; *************** function _read_ds1307 *****************
  5549 ;; Defined at:
  5550 ;;		line 52 in file "ds1307.c"
  5551 ;; Parameters:    Size  Location     Type
  5552 ;;  address         1    wreg     unsigned char 
  5553 ;; Auto vars:     Size  Location     Type
  5554 ;;  address         1    1[COMRAM] unsigned char 
  5555 ;;  data            1    2[COMRAM] unsigned char 
  5556 ;; Return value:  Size  Location     Type
  5557 ;;                  1    wreg      unsigned char 
  5558 ;; Registers used:
  5559 ;;		wreg, status,2, cstack
  5560 ;; Tracked objects:
  5561 ;;		On entry : 0/0
  5562 ;;		On exit  : 0/0
  5563 ;;		Unchanged: 0/0
  5564 ;; Data sizes:     COMRAM   BANK0   BANK1   BANK2   BANK3   BANK4   BANK5
  5565 ;;      Params:         0       0       0       0       0       0       0
  5566 ;;      Locals:         2       0       0       0       0       0       0
  5567 ;;      Temps:          0       0       0       0       0       0       0
  5568 ;;      Totals:         2       0       0       0       0       0       0
  5569 ;;Total ram usage:        2 bytes
  5570 ;; Hardware stack levels used: 1
  5571 ;; Hardware stack levels required when called: 4
  5572 ;; This function calls:
  5573 ;;		_i2c_read
  5574 ;;		_i2c_rep_start
  5575 ;;		_i2c_start
  5576 ;;		_i2c_stop
  5577 ;;		_i2c_write
  5578 ;; This function is called by:
  5579 ;;		_get_time
  5580 ;;		_init_ds1307
  5581 ;; This function uses a non-reentrant model
  5582 ;;
  5583                           
  5584                           	psect	text23
  5585   00272A                     __ptext23:
  5586                           	callstack 0
  5587   00272A                     _read_ds1307:
  5588                           	callstack 24
  5589                           
  5590                           ; BSR set to: 0
  5591                           ;incstack = 0
  5592                           ;read_ds1307@address stored from wreg
  5593   00272A  6E02               	movwf	read_ds1307@address^0,c
  5594   00272C                     
  5595                           ;ds1307.c: 52: unsigned char read_ds1307(unsigned char address);ds1307.c: 53: {;ds1307.c
      +                          : 54:  unsigned char data;;ds1307.c: 56:  i2c_start();
  5596   00272C  EC3B  F014         	call	_i2c_start	;wreg free
  5597   002730                     
  5598                           ;ds1307.c: 57:  i2c_write(0xD0);
  5599   002730  0ED0               	movlw	208
  5600   002732  EC29  F014         	call	_i2c_write
  5601   002736                     
  5602                           ;ds1307.c: 58:  i2c_write(address);
  5603   002736  5002               	movf	read_ds1307@address^0,w,c
  5604   002738  EC29  F014         	call	_i2c_write
  5605   00273C                     
  5606                           ;ds1307.c: 59:  i2c_rep_start();
  5607   00273C  EC2F  F014         	call	_i2c_rep_start	;wreg free
  5608   002740                     
  5609                           ;ds1307.c: 60:  i2c_write(0xD1);
  5610   002740  0ED1               	movlw	209
  5611   002742  EC29  F014         	call	_i2c_write
  5612                           
  5613                           ;ds1307.c: 61:  data = i2c_read();
  5614   002746  EC23  F014         	call	_i2c_read	;wreg free
  5615   00274A  6E03               	movwf	read_ds1307@data^0,c
  5616   00274C                     
  5617                           ;ds1307.c: 62:  i2c_stop();
  5618   00274C  EC37  F014         	call	_i2c_stop	;wreg free
  5619                           
  5620                           ;ds1307.c: 64:  return data;
  5621   002750  5003               	movf	read_ds1307@data^0,w,c
  5622   002752  0012               	return		;funcret
  5623   002754                     __end_of_read_ds1307:
  5624                           	callstack 0
  5625                           
  5626 ;; *************** function _i2c_rep_start *****************
  5627 ;; Defined at:
  5628 ;;		line 51 in file "i2c.c"
  5629 ;; Parameters:    Size  Location     Type
  5630 ;;		None
  5631 ;; Auto vars:     Size  Location     Type
  5632 ;;		None
  5633 ;; Return value:  Size  Location     Type
  5634 ;;                  1    wreg      void 
  5635 ;; Registers used:
  5636 ;;		cstack
  5637 ;; Tracked objects:
  5638 ;;		On entry : 0/0
  5639 ;;		On exit  : 0/0
  5640 ;;		Unchanged: 0/0
  5641 ;; Data sizes:     COMRAM   BANK0   BANK1   BANK2   BANK3   BANK4   BANK5
  5642 ;;      Params:         0       0       0       0       0       0       0
  5643 ;;      Locals:         0       0       0       0       0       0       0
  5644 ;;      Temps:          0       0       0       0       0       0       0
  5645 ;;      Totals:         0       0       0       0       0       0       0
  5646 ;;Total ram usage:        0 bytes
  5647 ;; Hardware stack levels used: 1
  5648 ;; Hardware stack levels required when called: 2
  5649 ;; This function calls:
  5650 ;;		_i2c_idle
  5651 ;; This function is called by:
  5652 ;;		_read_24c02
  5653 ;;		_read_ds1307
  5654 ;; This function uses a non-reentrant model
  5655 ;;
  5656                           
  5657                           	psect	text24
  5658   00285E                     __ptext24:
  5659                           	callstack 0
  5660   00285E                     _i2c_rep_start:
  5661                           	callstack 26
  5662   00285E                     
  5663                           ;i2c.c: 54:  RSEN = 1;
  5664   00285E  82C5               	bsf	4037,1,c	;volatile
  5665   002860                     
  5666                           ;i2c.c: 55:  i2c_idle();
  5667   002860  EC1A  F014         	call	_i2c_idle	;wreg free
  5668   002864  0012               	return		;funcret
  5669   002866                     __end_of_i2c_rep_start:
  5670                           	callstack 0
  5671                           
  5672 ;; *************** function _i2c_read *****************
  5673 ;; Defined at:
  5674 ;;		line 78 in file "i2c.c"
  5675 ;; Parameters:    Size  Location     Type
  5676 ;;		None
  5677 ;; Auto vars:     Size  Location     Type
  5678 ;;		None
  5679 ;; Return value:  Size  Location     Type
  5680 ;;                  1    wreg      unsigned char 
  5681 ;; Registers used:
  5682 ;;		wreg, status,2, cstack
  5683 ;; Tracked objects:
  5684 ;;		On entry : 0/0
  5685 ;;		On exit  : 0/0
  5686 ;;		Unchanged: 0/0
  5687 ;; Data sizes:     COMRAM   BANK0   BANK1   BANK2   BANK3   BANK4   BANK5
  5688 ;;      Params:         0       0       0       0       0       0       0
  5689 ;;      Locals:         0       0       0       0       0       0       0
  5690 ;;      Temps:          0       0       0       0       0       0       0
  5691 ;;      Totals:         0       0       0       0       0       0       0
  5692 ;;Total ram usage:        0 bytes
  5693 ;; Hardware stack levels used: 1
  5694 ;; Hardware stack levels required when called: 3
  5695 ;; This function calls:
  5696 ;;		_i2c_no_ack
  5697 ;;		_i2c_rx_mode
  5698 ;; This function is called by:
  5699 ;;		_read_24c02
  5700 ;;		_read_ds1307
  5701 ;; This function uses a non-reentrant model
  5702 ;;
  5703                           
  5704                           	psect	text25
  5705   002846                     __ptext25:
  5706                           	callstack 0
  5707   002846                     _i2c_read:
  5708                           	callstack 25
  5709   002846                     
  5710                           ;i2c.c: 80:  i2c_rx_mode();
  5711   002846  EC33  F014         	call	_i2c_rx_mode	;wreg free
  5712                           
  5713                           ;i2c.c: 81:  i2c_no_ack();
  5714   00284A  EC3F  F014         	call	_i2c_no_ack	;wreg free
  5715   00284E                     
  5716                           ;i2c.c: 83:  return SSPBUF;
  5717   00284E  50C9               	movf	201,w,c	;volatile
  5718   002850  0012               	return		;funcret
  5719   002852                     __end_of_i2c_read:
  5720                           	callstack 0
  5721                           
  5722 ;; *************** function _i2c_rx_mode *****************
  5723 ;; Defined at:
  5724 ;;		line 65 in file "i2c.c"
  5725 ;; Parameters:    Size  Location     Type
  5726 ;;		None
  5727 ;; Auto vars:     Size  Location     Type
  5728 ;;		None
  5729 ;; Return value:  Size  Location     Type
  5730 ;;                  1    wreg      void 
  5731 ;; Registers used:
  5732 ;;		cstack
  5733 ;; Tracked objects:
  5734 ;;		On entry : 0/0
  5735 ;;		On exit  : 0/0
  5736 ;;		Unchanged: 0/0
  5737 ;; Data sizes:     COMRAM   BANK0   BANK1   BANK2   BANK3   BANK4   BANK5
  5738 ;;      Params:         0       0       0       0       0       0       0
  5739 ;;      Locals:         0       0       0       0       0       0       0
  5740 ;;      Temps:          0       0       0       0       0       0       0
  5741 ;;      Totals:         0       0       0       0       0       0       0
  5742 ;;Total ram usage:        0 bytes
  5743 ;; Hardware stack levels used: 1
  5744 ;; Hardware stack levels required when called: 2
  5745 ;; This function calls:
  5746 ;;		_i2c_idle
  5747 ;; This function is called by:
  5748 ;;		_i2c_read
  5749 ;; This function uses a non-reentrant model
  5750 ;;
  5751                           
  5752                           	psect	text26
  5753   002866                     __ptext26:
  5754                           	callstack 0
  5755   002866                     _i2c_rx_mode:
  5756                           	callstack 25
  5757   002866                     
  5758                           ;i2c.c: 67:  RCEN = 1;
  5759   002866  86C5               	bsf	4037,3,c	;volatile
  5760   002868                     
  5761                           ;i2c.c: 68:  i2c_idle();
  5762   002868  EC1A  F014         	call	_i2c_idle	;wreg free
  5763   00286C  0012               	return		;funcret
  5764   00286E                     __end_of_i2c_rx_mode:
  5765                           	callstack 0
  5766                           
  5767 ;; *************** function _i2c_no_ack *****************
  5768 ;; Defined at:
  5769 ;;		line 71 in file "i2c.c"
  5770 ;; Parameters:    Size  Location     Type
  5771 ;;		None
  5772 ;; Auto vars:     Size  Location     Type
  5773 ;;		None
  5774 ;; Return value:  Size  Location     Type
  5775 ;;                  1    wreg      void 
  5776 ;; Registers used:
  5777 ;;		None
  5778 ;; Tracked objects:
  5779 ;;		On entry : 0/0
  5780 ;;		On exit  : 0/0
  5781 ;;		Unchanged: 0/0
  5782 ;; Data sizes:     COMRAM   BANK0   BANK1   BANK2   BANK3   BANK4   BANK5
  5783 ;;      Params:         0       0       0       0       0       0       0
  5784 ;;      Locals:         0       0       0       0       0       0       0
  5785 ;;      Temps:          0       0       0       0       0       0       0
  5786 ;;      Totals:         0       0       0       0       0       0       0
  5787 ;;Total ram usage:        0 bytes
  5788 ;; Hardware stack levels used: 1
  5789 ;; Hardware stack levels required when called: 1
  5790 ;; This function calls:
  5791 ;;		Nothing
  5792 ;; This function is called by:
  5793 ;;		_i2c_read
  5794 ;; This function uses a non-reentrant model
  5795 ;;
  5796                           
  5797                           	psect	text27
  5798   00287E                     __ptext27:
  5799                           	callstack 0
  5800   00287E                     _i2c_no_ack:
  5801                           	callstack 26
  5802   00287E                     
  5803                           ;i2c.c: 74:  ACKDT = 1;
  5804   00287E  8AC5               	bsf	4037,5,c	;volatile
  5805                           
  5806                           ;i2c.c: 75:  ACKEN = 1;
  5807   002880  88C5               	bsf	4037,4,c	;volatile
  5808   002882  0012               	return		;funcret
  5809   002884                     __end_of_i2c_no_ack:
  5810                           	callstack 0
  5811                           
  5812 ;; *************** function _event_capture *****************
  5813 ;; Defined at:
  5814 ;;		line 98 in file "blackbox.c"
  5815 ;; Parameters:    Size  Location     Type
  5816 ;;		None
  5817 ;; Auto vars:     Size  Location     Type
  5818 ;;  j               2   18[COMRAM] int 
  5819 ;; Return value:  Size  Location     Type
  5820 ;;                  1    wreg      void 
  5821 ;; Registers used:
  5822 ;;		wreg, fsr2l, fsr2h, status,2, status,0, prodl, prodh, cstack
  5823 ;; Tracked objects:
  5824 ;;		On entry : 0/0
  5825 ;;		On exit  : 0/0
  5826 ;;		Unchanged: 0/0
  5827 ;; Data sizes:     COMRAM   BANK0   BANK1   BANK2   BANK3   BANK4   BANK5
  5828 ;;      Params:         0       0       0       0       0       0       0
  5829 ;;      Locals:         2       0       0       0       0       0       0
  5830 ;;      Temps:          0       0       0       0       0       0       0
  5831 ;;      Totals:         2       0       0       0       0       0       0
  5832 ;;Total ram usage:        2 bytes
  5833 ;; Hardware stack levels used: 1
  5834 ;; Hardware stack levels required when called: 4
  5835 ;; This function calls:
  5836 ;;		___lwdiv
  5837 ;;		___lwmod
  5838 ;;		_write_24c02
  5839 ;; This function is called by:
  5840 ;;		_dashboard
  5841 ;; This function uses a non-reentrant model
  5842 ;;
  5843                           
  5844                           	psect	text28
  5845   001C4A                     __ptext28:
  5846                           	callstack 0
  5847   001C4A                     _event_capture:
  5848                           	callstack 25
  5849   001C4A                     
  5850                           ;blackbox.c: 100:     if(no_event<=10)
  5851   001C4A  5049               	movf	(_no_event+1)^0,w,c
  5852   001C4C  E107               	bnz	u2521
  5853   001C4E  0E0B               	movlw	11
  5854   001C50  5C48               	subwf	_no_event^0,w,c
  5855   001C52  B0D8               	btfsc	status,0,c
  5856   001C54  EF2E  F00E         	goto	u2521
  5857   001C58  EF30  F00E         	goto	u2520
  5858   001C5C                     u2521:
  5859   001C5C  EF32  F00E         	goto	l4265
  5860   001C60                     u2520:
  5861   001C60                     
  5862                           ;blackbox.c: 101:     {;blackbox.c: 102:         ++no_event;
  5863   001C60  4A48               	infsnz	_no_event^0,f,c
  5864   001C62  2A49               	incf	(_no_event+1)^0,f,c
  5865   001C64                     l4265:
  5866                           
  5867                           ;blackbox.c: 104:     if(addr>=99)
  5868   001C64  0E62               	movlw	98
  5869   001C66  645B               	cpfsgt	_addr^0,c
  5870   001C68  EF38  F00E         	goto	u2531
  5871   001C6C  EF3A  F00E         	goto	u2530
  5872   001C70                     u2531:
  5873   001C70  EF41  F00E         	goto	l4269
  5874   001C74                     u2530:
  5875   001C74                     
  5876                           ;blackbox.c: 105:     {;blackbox.c: 106:         event_flag=1;
  5877   001C74  0E00               	movlw	0
  5878   001C76  0100               	movlb	0	; () banked
  5879   001C78  6F8D               	movwf	(_event_flag+1)& (0+255),b
  5880   001C7A  0E01               	movlw	1
  5881   001C7C  6F8C               	movwf	_event_flag& (0+255),b
  5882                           
  5883                           ;blackbox.c: 107:         addr=0x00;
  5884   001C7E  0E00               	movlw	0
  5885   001C80  6E5B               	movwf	_addr^0,c
  5886   001C82                     l4269:
  5887                           
  5888                           ;blackbox.c: 109:     if(event_flag)
  5889   001C82  0100               	movlb	0	; () banked
  5890   001C84  518C               	movf	_event_flag& (0+255),w,b
  5891   001C86  118D               	iorwf	(_event_flag+1)& (0+255),w,b
  5892   001C88  B4D8               	btfsc	status,2,c
  5893   001C8A  EF49  F00E         	goto	u2541
  5894   001C8E  EF4B  F00E         	goto	u2540
  5895   001C92                     u2541:
  5896   001C92  EF5C  F00E         	goto	l813
  5897   001C96                     u2540:
  5898   001C96                     
  5899                           ; BSR set to: 0
  5900                           ;blackbox.c: 110:     {;blackbox.c: 111:         line++;
  5901   001C96  4B82               	infsnz	_line& (0+255),f,b
  5902   001C98  2B83               	incf	(_line+1)& (0+255),f,b
  5903   001C9A                     
  5904                           ; BSR set to: 0
  5905                           ;blackbox.c: 112:         if(line>10)
  5906   001C9A  5183               	movf	(_line+1)& (0+255),w,b
  5907   001C9C  E109               	bnz	u2550
  5908   001C9E  0E0B               	movlw	11
  5909   001CA0  5D82               	subwf	_line& (0+255),w,b
  5910   001CA2  A0D8               	btfss	status,0,c
  5911   001CA4  EF56  F00E         	goto	u2551
  5912   001CA8  EF58  F00E         	goto	u2550
  5913   001CAC                     u2551:
  5914   001CAC  EF5C  F00E         	goto	l813
  5915   001CB0                     u2550:
  5916   001CB0                     
  5917                           ; BSR set to: 0
  5918                           ;blackbox.c: 113:         {;blackbox.c: 114:             line=0;
  5919   001CB0  0E00               	movlw	0
  5920   001CB2  6F83               	movwf	(_line+1)& (0+255),b
  5921   001CB4  0E00               	movlw	0
  5922   001CB6  6F82               	movwf	_line& (0+255),b
  5923   001CB8                     l813:
  5924                           
  5925                           ; BSR set to: 0
  5926                           ;blackbox.c: 117:     for(int j = 0;j<8;j++)
  5927   001CB8  0E00               	movlw	0
  5928   001CBA  6E14               	movwf	(event_capture@j+1)^0,c
  5929   001CBC  0E00               	movlw	0
  5930   001CBE  6E13               	movwf	event_capture@j^0,c
  5931   001CC0                     l4281:
  5932                           
  5933                           ;blackbox.c: 118:     {;blackbox.c: 119:         if(j==2 ||j==5)
  5934   001CC0  0E02               	movlw	2
  5935   001CC2  1813               	xorwf	event_capture@j^0,w,c
  5936   001CC4  1014               	iorwf	(event_capture@j+1)^0,w,c
  5937   001CC6  B4D8               	btfsc	status,2,c
  5938   001CC8  EF68  F00E         	goto	u2561
  5939   001CCC  EF6A  F00E         	goto	u2560
  5940   001CD0                     u2561:
  5941   001CD0  EF80  F00E         	goto	l4289
  5942   001CD4                     u2560:
  5943   001CD4  0E05               	movlw	5
  5944   001CD6  1813               	xorwf	event_capture@j^0,w,c
  5945   001CD8  1014               	iorwf	(event_capture@j+1)^0,w,c
  5946   001CDA  A4D8               	btfss	status,2,c
  5947   001CDC  EF72  F00E         	goto	u2571
  5948   001CE0  EF74  F00E         	goto	u2570
  5949   001CE4                     u2571:
  5950   001CE4  EF76  F00E         	goto	l4285
  5951   001CE8                     u2570:
  5952   001CE8  EF80  F00E         	goto	l4289
  5953   001CEC                     l4285:
  5954                           
  5955                           ;blackbox.c: 123:         write_24c02(addr++,time[j]);
  5956   001CEC  5013               	movf	event_capture@j^0,w,c
  5957   001CEE  0F90               	addlw	low _time
  5958   001CF0  6ED9               	movwf	fsr2l,c
  5959   001CF2  6ADA               	clrf	fsr2h,c
  5960   001CF4  50DF               	movf	indf2,w,c
  5961   001CF6  6E0D               	movwf	write_24c02@data^0,c
  5962   001CF8  505B               	movf	_addr^0,w,c
  5963   001CFA  ECF5  F012         	call	_write_24c02
  5964   001CFE  2A5B               	incf	_addr^0,f,c
  5965   001D00                     l4289:
  5966   001D00  4A13               	infsnz	event_capture@j^0,f,c
  5967   001D02  2A14               	incf	(event_capture@j+1)^0,f,c
  5968   001D04  BE14               	btfsc	(event_capture@j+1)^0,7,c
  5969   001D06  EF8E  F00E         	goto	u2581
  5970   001D0A  5014               	movf	(event_capture@j+1)^0,w,c
  5971   001D0C  E109               	bnz	u2580
  5972   001D0E  0E08               	movlw	8
  5973   001D10  5C13               	subwf	event_capture@j^0,w,c
  5974   001D12  A0D8               	btfss	status,0,c
  5975   001D14  EF8E  F00E         	goto	u2581
  5976   001D18  EF90  F00E         	goto	u2580
  5977   001D1C                     u2581:
  5978   001D1C  EF60  F00E         	goto	l4281
  5979   001D20                     u2580:
  5980   001D20                     
  5981                           ;blackbox.c: 125:     write_24c02(addr++,gear[i][0]);
  5982   001D20  5052               	movf	_i^0,w,c
  5983   001D22  0D03               	mullw	3
  5984   001D24  50F3               	movf	243,w,c
  5985   001D26  0FAF               	addlw	low _gear
  5986   001D28  6ED9               	movwf	fsr2l,c
  5987   001D2A  6ADA               	clrf	fsr2h,c
  5988   001D2C  50DF               	movf	indf2,w,c
  5989   001D2E  6E0D               	movwf	write_24c02@data^0,c
  5990   001D30  505B               	movf	_addr^0,w,c
  5991   001D32  ECF5  F012         	call	_write_24c02
  5992   001D36  2A5B               	incf	_addr^0,f,c
  5993   001D38                     
  5994                           ;blackbox.c: 126:     write_24c02(addr++,gear[i][1]);
  5995   001D38  5052               	movf	_i^0,w,c
  5996   001D3A  0D03               	mullw	3
  5997   001D3C  50F3               	movf	243,w,c
  5998   001D3E  0FB0               	addlw	low (_gear+1)
  5999   001D40  6ED9               	movwf	fsr2l,c
  6000   001D42  6ADA               	clrf	fsr2h,c
  6001   001D44  50DF               	movf	indf2,w,c
  6002   001D46  6E0D               	movwf	write_24c02@data^0,c
  6003   001D48  505B               	movf	_addr^0,w,c
  6004   001D4A  ECF5  F012         	call	_write_24c02
  6005   001D4E  2A5B               	incf	_addr^0,f,c
  6006   001D50                     
  6007                           ;blackbox.c: 127:     write_24c02(addr++,speed_val/10+'0');
  6008   001D50  C050  F001         	movff	_speed_val,___lwdiv@dividend
  6009   001D54  C051  F002         	movff	_speed_val+1,___lwdiv@dividend+1
  6010   001D58  0E00               	movlw	0
  6011   001D5A  6E04               	movwf	(___lwdiv@divisor+1)^0,c
  6012   001D5C  0E0A               	movlw	10
  6013   001D5E  6E03               	movwf	___lwdiv@divisor^0,c
  6014   001D60  EC74  F011         	call	___lwdiv	;wreg free
  6015   001D64  5001               	movf	?___lwdiv^0,w,c
  6016   001D66  0F30               	addlw	48
  6017   001D68  6E0D               	movwf	write_24c02@data^0,c
  6018   001D6A  505B               	movf	_addr^0,w,c
  6019   001D6C  ECF5  F012         	call	_write_24c02
  6020   001D70  2A5B               	incf	_addr^0,f,c
  6021                           
  6022                           ;blackbox.c: 128:     write_24c02(addr++,speed_val%10+'0');
  6023   001D72  C050  F008         	movff	_speed_val,___lwmod@dividend
  6024   001D76  C051  F009         	movff	_speed_val+1,___lwmod@dividend+1
  6025   001D7A  0E00               	movlw	0
  6026   001D7C  6E0B               	movwf	(___lwmod@divisor+1)^0,c
  6027   001D7E  0E0A               	movlw	10
  6028   001D80  6E0A               	movwf	___lwmod@divisor^0,c
  6029   001D82  ECE4  F011         	call	___lwmod	;wreg free
  6030   001D86  5008               	movf	?___lwmod^0,w,c
  6031   001D88  0F30               	addlw	48
  6032   001D8A  6E0D               	movwf	write_24c02@data^0,c
  6033   001D8C  505B               	movf	_addr^0,w,c
  6034   001D8E  ECF5  F012         	call	_write_24c02
  6035   001D92  2A5B               	incf	_addr^0,f,c
  6036   001D94  0012               	return		;funcret
  6037   001D96                     __end_of_event_capture:
  6038                           	callstack 0
  6039                           
  6040 ;; *************** function ___xxtofl *****************
  6041 ;; Defined at:
  6042 ;;		line 10 in file "C:\Program Files\Microchip\xc8\v2.46\pic\sources\c99\common\xxtofl.c"
  6043 ;; Parameters:    Size  Location     Type
  6044 ;;  sign            1    wreg     unsigned char 
  6045 ;;  val             4    7[COMRAM] long 
  6046 ;; Auto vars:     Size  Location     Type
  6047 ;;  sign            1   15[COMRAM] unsigned char 
  6048 ;;  arg             4   17[COMRAM] unsigned long 
  6049 ;;  exp             1   16[COMRAM] unsigned char 
  6050 ;; Return value:  Size  Location     Type
  6051 ;;                  4    7[COMRAM] unsigned char 
  6052 ;; Registers used:
  6053 ;;		wreg, status,2, status,0
  6054 ;; Tracked objects:
  6055 ;;		On entry : 0/0
  6056 ;;		On exit  : 0/0
  6057 ;;		Unchanged: 0/0
  6058 ;; Data sizes:     COMRAM   BANK0   BANK1   BANK2   BANK3   BANK4   BANK5
  6059 ;;      Params:         4       0       0       0       0       0       0
  6060 ;;      Locals:         6       0       0       0       0       0       0
  6061 ;;      Temps:          4       0       0       0       0       0       0
  6062 ;;      Totals:        14       0       0       0       0       0       0
  6063 ;;Total ram usage:       14 bytes
  6064 ;; Hardware stack levels used: 1
  6065 ;; Hardware stack levels required when called: 1
  6066 ;; This function calls:
  6067 ;;		Nothing
  6068 ;; This function is called by:
  6069 ;;		_dashboard
  6070 ;; This function uses a non-reentrant model
  6071 ;;
  6072                           
  6073                           	psect	text29
  6074   001A96                     __ptext29:
  6075                           	callstack 0
  6076   001A96                     ___xxtofl:
  6077                           	callstack 28
  6078                           
  6079                           ;incstack = 0
  6080                           ;___xxtofl@sign stored from wreg
  6081   001A96  6E10               	movwf	___xxtofl@sign^0,c
  6082   001A98  5010               	movf	___xxtofl@sign^0,w,c
  6083   001A9A  B4D8               	btfsc	status,2,c
  6084   001A9C  EF52  F00D         	goto	u2941
  6085   001AA0  EF54  F00D         	goto	u2940
  6086   001AA4                     u2941:
  6087   001AA4  EF76  F00D         	goto	l2269
  6088   001AA8                     u2940:
  6089   001AA8  BE0B               	btfsc	(___xxtofl@val+3)^0,7,c
  6090   001AAA  EF5B  F00D         	goto	u2950
  6091   001AAE  EF59  F00D         	goto	u2951
  6092   001AB2                     u2951:
  6093   001AB2  EF76  F00D         	goto	l2269
  6094   001AB6                     u2950:
  6095   001AB6  C008  F00C         	movff	___xxtofl@val,??___xxtofl
  6096   001ABA  C009  F00D         	movff	___xxtofl@val+1,??___xxtofl+1
  6097   001ABE  C00A  F00E         	movff	___xxtofl@val+2,??___xxtofl+2
  6098   001AC2  C00B  F00F         	movff	___xxtofl@val+3,??___xxtofl+3
  6099   001AC6  1E0C               	comf	??___xxtofl^0,f,c
  6100   001AC8  1E0D               	comf	(??___xxtofl+1)^0,f,c
  6101   001ACA  1E0E               	comf	(??___xxtofl+2)^0,f,c
  6102   001ACC  1E0F               	comf	(??___xxtofl+3)^0,f,c
  6103   001ACE  2A0C               	incf	??___xxtofl^0,f,c
  6104   001AD0  0E00               	movlw	0
  6105   001AD2  220D               	addwfc	(??___xxtofl+1)^0,f,c
  6106   001AD4  220E               	addwfc	(??___xxtofl+2)^0,f,c
  6107   001AD6  220F               	addwfc	(??___xxtofl+3)^0,f,c
  6108   001AD8  C00C  F012         	movff	??___xxtofl,___xxtofl@arg
  6109   001ADC  C00D  F013         	movff	??___xxtofl+1,___xxtofl@arg+1
  6110   001AE0  C00E  F014         	movff	??___xxtofl+2,___xxtofl@arg+2
  6111   001AE4  C00F  F015         	movff	??___xxtofl+3,___xxtofl@arg+3
  6112   001AE8  EF7E  F00D         	goto	l4541
  6113   001AEC                     l2269:
  6114   001AEC  C008  F012         	movff	___xxtofl@val,___xxtofl@arg
  6115   001AF0  C009  F013         	movff	___xxtofl@val+1,___xxtofl@arg+1
  6116   001AF4  C00A  F014         	movff	___xxtofl@val+2,___xxtofl@arg+2
  6117   001AF8  C00B  F015         	movff	___xxtofl@val+3,___xxtofl@arg+3
  6118   001AFC                     l4541:
  6119   001AFC  5008               	movf	___xxtofl@val^0,w,c
  6120   001AFE  1009               	iorwf	(___xxtofl@val+1)^0,w,c
  6121   001B00  100A               	iorwf	(___xxtofl@val+2)^0,w,c
  6122   001B02  100B               	iorwf	(___xxtofl@val+3)^0,w,c
  6123   001B04  A4D8               	btfss	status,2,c
  6124   001B06  EF87  F00D         	goto	u2961
  6125   001B0A  EF89  F00D         	goto	u2960
  6126   001B0E                     u2961:
  6127   001B0E  EF93  F00D         	goto	l4547
  6128   001B12                     u2960:
  6129   001B12  0E00               	movlw	0
  6130   001B14  6E08               	movwf	?___xxtofl^0,c
  6131   001B16  0E00               	movlw	0
  6132   001B18  6E09               	movwf	(?___xxtofl+1)^0,c
  6133   001B1A  0E00               	movlw	0
  6134   001B1C  6E0A               	movwf	(?___xxtofl+2)^0,c
  6135   001B1E  0E00               	movlw	0
  6136   001B20  6E0B               	movwf	(?___xxtofl+3)^0,c
  6137   001B22  EF24  F00E         	goto	l2272
  6138   001B26                     l4547:
  6139   001B26  0E96               	movlw	150
  6140   001B28  6E11               	movwf	___xxtofl@exp^0,c
  6141   001B2A  EF9D  F00D         	goto	l4551
  6142   001B2E                     l4549:
  6143   001B2E  2A11               	incf	___xxtofl@exp^0,f,c
  6144   001B30  90D8               	bcf	status,0,c
  6145   001B32  3215               	rrcf	(___xxtofl@arg+3)^0,f,c
  6146   001B34  3214               	rrcf	(___xxtofl@arg+2)^0,f,c
  6147   001B36  3213               	rrcf	(___xxtofl@arg+1)^0,f,c
  6148   001B38  3212               	rrcf	___xxtofl@arg^0,f,c
  6149   001B3A                     l4551:
  6150   001B3A  0E00               	movlw	0
  6151   001B3C  1412               	andwf	___xxtofl@arg^0,w,c
  6152   001B3E  6E0C               	movwf	??___xxtofl^0,c
  6153   001B40  0E00               	movlw	0
  6154   001B42  1413               	andwf	(___xxtofl@arg+1)^0,w,c
  6155   001B44  6E0D               	movwf	(??___xxtofl+1)^0,c
  6156   001B46  0E00               	movlw	0
  6157   001B48  1414               	andwf	(___xxtofl@arg+2)^0,w,c
  6158   001B4A  6E0E               	movwf	(??___xxtofl+2)^0,c
  6159   001B4C  0EFE               	movlw	254
  6160   001B4E  1415               	andwf	(___xxtofl@arg+3)^0,w,c
  6161   001B50  6E0F               	movwf	(??___xxtofl+3)^0,c
  6162   001B52  500C               	movf	??___xxtofl^0,w,c
  6163   001B54  100D               	iorwf	(??___xxtofl+1)^0,w,c
  6164   001B56  100E               	iorwf	(??___xxtofl+2)^0,w,c
  6165   001B58  100F               	iorwf	(??___xxtofl+3)^0,w,c
  6166   001B5A  A4D8               	btfss	status,2,c
  6167   001B5C  EFB2  F00D         	goto	u2971
  6168   001B60  EFB4  F00D         	goto	u2970
  6169   001B64                     u2971:
  6170   001B64  EF97  F00D         	goto	l4549
  6171   001B68                     u2970:
  6172   001B68  EFC2  F00D         	goto	l2276
  6173   001B6C                     l4553:
  6174   001B6C  2A11               	incf	___xxtofl@exp^0,f,c
  6175   001B6E  0E01               	movlw	1
  6176   001B70  2612               	addwf	___xxtofl@arg^0,f,c
  6177   001B72  0E00               	movlw	0
  6178   001B74  2213               	addwfc	(___xxtofl@arg+1)^0,f,c
  6179   001B76  2214               	addwfc	(___xxtofl@arg+2)^0,f,c
  6180   001B78  2215               	addwfc	(___xxtofl@arg+3)^0,f,c
  6181   001B7A  90D8               	bcf	status,0,c
  6182   001B7C  3215               	rrcf	(___xxtofl@arg+3)^0,f,c
  6183   001B7E  3214               	rrcf	(___xxtofl@arg+2)^0,f,c
  6184   001B80  3213               	rrcf	(___xxtofl@arg+1)^0,f,c
  6185   001B82  3212               	rrcf	___xxtofl@arg^0,f,c
  6186   001B84                     l2276:
  6187   001B84  0E00               	movlw	0
  6188   001B86  1412               	andwf	___xxtofl@arg^0,w,c
  6189   001B88  6E0C               	movwf	??___xxtofl^0,c
  6190   001B8A  0E00               	movlw	0
  6191   001B8C  1413               	andwf	(___xxtofl@arg+1)^0,w,c
  6192   001B8E  6E0D               	movwf	(??___xxtofl+1)^0,c
  6193   001B90  0E00               	movlw	0
  6194   001B92  1414               	andwf	(___xxtofl@arg+2)^0,w,c
  6195   001B94  6E0E               	movwf	(??___xxtofl+2)^0,c
  6196   001B96  0EFF               	movlw	255
  6197   001B98  1415               	andwf	(___xxtofl@arg+3)^0,w,c
  6198   001B9A  6E0F               	movwf	(??___xxtofl+3)^0,c
  6199   001B9C  500C               	movf	??___xxtofl^0,w,c
  6200   001B9E  100D               	iorwf	(??___xxtofl+1)^0,w,c
  6201   001BA0  100E               	iorwf	(??___xxtofl+2)^0,w,c
  6202   001BA2  100F               	iorwf	(??___xxtofl+3)^0,w,c
  6203   001BA4  A4D8               	btfss	status,2,c
  6204   001BA6  EFD7  F00D         	goto	u2981
  6205   001BAA  EFD9  F00D         	goto	u2980
  6206   001BAE                     u2981:
  6207   001BAE  EFB6  F00D         	goto	l4553
  6208   001BB2                     u2980:
  6209   001BB2  EFE1  F00D         	goto	l4561
  6210   001BB6                     l4559:
  6211   001BB6  0611               	decf	___xxtofl@exp^0,f,c
  6212   001BB8  90D8               	bcf	status,0,c
  6213   001BBA  3612               	rlcf	___xxtofl@arg^0,f,c
  6214   001BBC  3613               	rlcf	(___xxtofl@arg+1)^0,f,c
  6215   001BBE  3614               	rlcf	(___xxtofl@arg+2)^0,f,c
  6216   001BC0  3615               	rlcf	(___xxtofl@arg+3)^0,f,c
  6217   001BC2                     l4561:
  6218   001BC2  BE14               	btfsc	(___xxtofl@arg+2)^0,7,c
  6219   001BC4  EFE6  F00D         	goto	u2991
  6220   001BC8  EFE8  F00D         	goto	u2990
  6221   001BCC                     u2991:
  6222   001BCC  EFF0  F00D         	goto	l2283
  6223   001BD0                     u2990:
  6224   001BD0  0E02               	movlw	2
  6225   001BD2  6011               	cpfslt	___xxtofl@exp^0,c
  6226   001BD4  EFEE  F00D         	goto	u3001
  6227   001BD8  EFF0  F00D         	goto	u3000
  6228   001BDC                     u3001:
  6229   001BDC  EFDB  F00D         	goto	l4559
  6230   001BE0                     u3000:
  6231   001BE0                     l2283:
  6232   001BE0  B011               	btfsc	___xxtofl@exp^0,0,c
  6233   001BE2  EFF5  F00D         	goto	u3011
  6234   001BE6  EFF7  F00D         	goto	u3010
  6235   001BEA                     u3011:
  6236   001BEA  EFF8  F00D         	goto	l4567
  6237   001BEE                     u3010:
  6238   001BEE  9E14               	bcf	(___xxtofl@arg+2)^0,7,c
  6239   001BF0                     l4567:
  6240   001BF0  90D8               	bcf	status,0,c
  6241   001BF2  3211               	rrcf	___xxtofl@exp^0,f,c
  6242   001BF4  C011  F00C         	movff	___xxtofl@exp,??___xxtofl
  6243   001BF8  6A0D               	clrf	(??___xxtofl+1)^0,c
  6244   001BFA  6A0E               	clrf	(??___xxtofl+2)^0,c
  6245   001BFC  6A0F               	clrf	(??___xxtofl+3)^0,c
  6246   001BFE  C00C  F00F         	movff	??___xxtofl,??___xxtofl+3
  6247   001C02  6A0E               	clrf	(??___xxtofl+2)^0,c
  6248   001C04  6A0D               	clrf	(??___xxtofl+1)^0,c
  6249   001C06  6A0C               	clrf	??___xxtofl^0,c
  6250   001C08  500C               	movf	??___xxtofl^0,w,c
  6251   001C0A  1212               	iorwf	___xxtofl@arg^0,f,c
  6252   001C0C  500D               	movf	(??___xxtofl+1)^0,w,c
  6253   001C0E  1213               	iorwf	(___xxtofl@arg+1)^0,f,c
  6254   001C10  500E               	movf	(??___xxtofl+2)^0,w,c
  6255   001C12  1214               	iorwf	(___xxtofl@arg+2)^0,f,c
  6256   001C14  500F               	movf	(??___xxtofl+3)^0,w,c
  6257   001C16  1215               	iorwf	(___xxtofl@arg+3)^0,f,c
  6258   001C18  5010               	movf	___xxtofl@sign^0,w,c
  6259   001C1A  B4D8               	btfsc	status,2,c
  6260   001C1C  EF12  F00E         	goto	u3021
  6261   001C20  EF14  F00E         	goto	u3020
  6262   001C24                     u3021:
  6263   001C24  EF1C  F00E         	goto	l4577
  6264   001C28                     u3020:
  6265   001C28  BE0B               	btfsc	(___xxtofl@val+3)^0,7,c
  6266   001C2A  EF1B  F00E         	goto	u3030
  6267   001C2E  EF19  F00E         	goto	u3031
  6268   001C32                     u3031:
  6269   001C32  EF1C  F00E         	goto	l4577
  6270   001C36                     u3030:
  6271   001C36  8E15               	bsf	(___xxtofl@arg+3)^0,7,c
  6272   001C38                     l4577:
  6273   001C38  C012  F008         	movff	___xxtofl@arg,?___xxtofl
  6274   001C3C  C013  F009         	movff	___xxtofl@arg+1,?___xxtofl+1
  6275   001C40  C014  F00A         	movff	___xxtofl@arg+2,?___xxtofl+2
  6276   001C44  C015  F00B         	movff	___xxtofl@arg+3,?___xxtofl+3
  6277   001C48                     l2272:
  6278   001C48  0012               	return		;funcret
  6279   001C4A                     __end_of___xxtofl:
  6280                           	callstack 0
  6281                           
  6282 ;; *************** function ___fltol *****************
  6283 ;; Defined at:
  6284 ;;		line 43 in file "C:\Program Files\Microchip\xc8\v2.46\pic\sources\c99\common\fltol.c"
  6285 ;; Parameters:    Size  Location     Type
  6286 ;;  f1              4   46[COMRAM] unsigned char 
  6287 ;; Auto vars:     Size  Location     Type
  6288 ;;  exp1            1   55[COMRAM] unsigned char 
  6289 ;;  sign1           1   54[COMRAM] unsigned char 
  6290 ;; Return value:  Size  Location     Type
  6291 ;;                  4   46[COMRAM] long 
  6292 ;; Registers used:
  6293 ;;		wreg, status,2, status,0
  6294 ;; Tracked objects:
  6295 ;;		On entry : 0/0
  6296 ;;		On exit  : 0/0
  6297 ;;		Unchanged: 0/0
  6298 ;; Data sizes:     COMRAM   BANK0   BANK1   BANK2   BANK3   BANK4   BANK5
  6299 ;;      Params:         4       0       0       0       0       0       0
  6300 ;;      Locals:         2       0       0       0       0       0       0
  6301 ;;      Temps:          4       0       0       0       0       0       0
  6302 ;;      Totals:        10       0       0       0       0       0       0
  6303 ;;Total ram usage:       10 bytes
  6304 ;; Hardware stack levels used: 1
  6305 ;; Hardware stack levels required when called: 1
  6306 ;; This function calls:
  6307 ;;		Nothing
  6308 ;; This function is called by:
  6309 ;;		_dashboard
  6310 ;; This function uses a non-reentrant model
  6311 ;;
  6312                           
  6313                           	psect	text30
  6314   001E9E                     __ptext30:
  6315                           	callstack 0
  6316   001E9E                     ___fltol:
  6317                           	callstack 28
  6318   001E9E  3431               	rlcf	(___fltol@f1+2)^0,w,c
  6319   001EA0  3432               	rlcf	(___fltol@f1+3)^0,w,c
  6320   001EA2  6E38               	movwf	___fltol@exp1^0,c
  6321   001EA4  5038               	movf	___fltol@exp1^0,w,c
  6322   001EA6  A4D8               	btfss	status,2,c
  6323   001EA8  EF58  F00F         	goto	u2871
  6324   001EAC  EF5A  F00F         	goto	u2870
  6325   001EB0                     u2871:
  6326   001EB0  EF64  F00F         	goto	l4497
  6327   001EB4                     u2870:
  6328   001EB4                     l4493:
  6329   001EB4  0E00               	movlw	0
  6330   001EB6  6E2F               	movwf	?___fltol^0,c
  6331   001EB8  0E00               	movlw	0
  6332   001EBA  6E30               	movwf	(?___fltol+1)^0,c
  6333   001EBC  0E00               	movlw	0
  6334   001EBE  6E31               	movwf	(?___fltol+2)^0,c
  6335   001EC0  0E00               	movlw	0
  6336   001EC2  6E32               	movwf	(?___fltol+3)^0,c
  6337   001EC4  EFD1  F00F         	goto	l1911
  6338   001EC8                     l4497:
  6339   001EC8  C02F  F033         	movff	___fltol@f1,??___fltol
  6340   001ECC  C030  F034         	movff	___fltol@f1+1,??___fltol+1
  6341   001ED0  C031  F035         	movff	___fltol@f1+2,??___fltol+2
  6342   001ED4  C032  F036         	movff	___fltol@f1+3,??___fltol+3
  6343   001ED8  0E20               	movlw	32
  6344   001EDA  EF74  F00F         	goto	u2880
  6345   001EDE                     u2885:
  6346   001EDE  90D8               	bcf	status,0,c
  6347   001EE0  3236               	rrcf	(??___fltol+3)^0,f,c
  6348   001EE2  3235               	rrcf	(??___fltol+2)^0,f,c
  6349   001EE4  3234               	rrcf	(??___fltol+1)^0,f,c
  6350   001EE6  3233               	rrcf	??___fltol^0,f,c
  6351   001EE8                     u2880:
  6352   001EE8  2EE8               	decfsz	wreg,f,c
  6353   001EEA  EF6F  F00F         	goto	u2885
  6354   001EEE  5033               	movf	??___fltol^0,w,c
  6355   001EF0  6E37               	movwf	___fltol@sign1^0,c
  6356   001EF2  8E31               	bsf	(___fltol@f1+2)^0,7,c
  6357   001EF4  0EFF               	movlw	255
  6358   001EF6  162F               	andwf	___fltol@f1^0,f,c
  6359   001EF8  0EFF               	movlw	255
  6360   001EFA  1630               	andwf	(___fltol@f1+1)^0,f,c
  6361   001EFC  0EFF               	movlw	255
  6362   001EFE  1631               	andwf	(___fltol@f1+2)^0,f,c
  6363   001F00  0E00               	movlw	0
  6364   001F02  1632               	andwf	(___fltol@f1+3)^0,f,c
  6365   001F04  0E96               	movlw	150
  6366   001F06  5E38               	subwf	___fltol@exp1^0,f,c
  6367   001F08  BE38               	btfsc	___fltol@exp1^0,7,c
  6368   001F0A  EF8B  F00F         	goto	u2890
  6369   001F0E  EF89  F00F         	goto	u2891
  6370   001F12                     u2891:
  6371   001F12  EFA1  F00F         	goto	l4517
  6372   001F16                     u2890:
  6373   001F16  5038               	movf	___fltol@exp1^0,w,c
  6374   001F18  0A80               	xorlw	128
  6375   001F1A  0F97               	addlw	151
  6376   001F1C  B0D8               	btfsc	status,0,c
  6377   001F1E  EF93  F00F         	goto	u2901
  6378   001F22  EF95  F00F         	goto	u2900
  6379   001F26                     u2901:
  6380   001F26  EF97  F00F         	goto	l4513
  6381   001F2A                     u2900:
  6382   001F2A  EF5A  F00F         	goto	l4493
  6383   001F2E                     l4513:
  6384   001F2E  90D8               	bcf	status,0,c
  6385   001F30  3232               	rrcf	(___fltol@f1+3)^0,f,c
  6386   001F32  3231               	rrcf	(___fltol@f1+2)^0,f,c
  6387   001F34  3230               	rrcf	(___fltol@f1+1)^0,f,c
  6388   001F36  322F               	rrcf	___fltol@f1^0,f,c
  6389   001F38  3E38               	incfsz	___fltol@exp1^0,f,c
  6390   001F3A  EF97  F00F         	goto	l4513
  6391   001F3E  EFB9  F00F         	goto	l4527
  6392   001F42                     l4517:
  6393   001F42  0E1F               	movlw	31
  6394   001F44  6438               	cpfsgt	___fltol@exp1^0,c
  6395   001F46  EFA7  F00F         	goto	u2911
  6396   001F4A  EFA9  F00F         	goto	u2910
  6397   001F4E                     u2911:
  6398   001F4E  EFB1  F00F         	goto	l4525
  6399   001F52                     u2910:
  6400   001F52  EF5A  F00F         	goto	l4493
  6401   001F56                     l4523:
  6402   001F56  90D8               	bcf	status,0,c
  6403   001F58  362F               	rlcf	___fltol@f1^0,f,c
  6404   001F5A  3630               	rlcf	(___fltol@f1+1)^0,f,c
  6405   001F5C  3631               	rlcf	(___fltol@f1+2)^0,f,c
  6406   001F5E  3632               	rlcf	(___fltol@f1+3)^0,f,c
  6407   001F60  0638               	decf	___fltol@exp1^0,f,c
  6408   001F62                     l4525:
  6409   001F62  5038               	movf	___fltol@exp1^0,w,c
  6410   001F64  A4D8               	btfss	status,2,c
  6411   001F66  EFB7  F00F         	goto	u2921
  6412   001F6A  EFB9  F00F         	goto	u2920
  6413   001F6E                     u2921:
  6414   001F6E  EFAB  F00F         	goto	l4523
  6415   001F72                     u2920:
  6416   001F72                     l4527:
  6417   001F72  5037               	movf	___fltol@sign1^0,w,c
  6418   001F74  B4D8               	btfsc	status,2,c
  6419   001F76  EFBF  F00F         	goto	u2931
  6420   001F7A  EFC1  F00F         	goto	u2930
  6421   001F7E                     u2931:
  6422   001F7E  EFC9  F00F         	goto	l4531
  6423   001F82                     u2930:
  6424   001F82  1E32               	comf	(___fltol@f1+3)^0,f,c
  6425   001F84  1E31               	comf	(___fltol@f1+2)^0,f,c
  6426   001F86  1E30               	comf	(___fltol@f1+1)^0,f,c
  6427   001F88  6C2F               	negf	___fltol@f1^0,c
  6428   001F8A  0E00               	movlw	0
  6429   001F8C  2230               	addwfc	(___fltol@f1+1)^0,f,c
  6430   001F8E  2231               	addwfc	(___fltol@f1+2)^0,f,c
  6431   001F90  2232               	addwfc	(___fltol@f1+3)^0,f,c
  6432   001F92                     l4531:
  6433   001F92  C02F  F02F         	movff	___fltol@f1,?___fltol
  6434   001F96  C030  F030         	movff	___fltol@f1+1,?___fltol+1
  6435   001F9A  C031  F031         	movff	___fltol@f1+2,?___fltol+2
  6436   001F9E  C032  F032         	movff	___fltol@f1+3,?___fltol+3
  6437   001FA2                     l1911:
  6438   001FA2  0012               	return		;funcret
  6439   001FA4                     __end_of___fltol:
  6440                           	callstack 0
  6441                           
  6442 ;; *************** function ___fldiv *****************
  6443 ;; Defined at:
  6444 ;;		line 11 in file "C:\Program Files\Microchip\xc8\v2.46\pic\sources\c99\common\sprcdiv.c"
  6445 ;; Parameters:    Size  Location     Type
  6446 ;;  b               4   21[COMRAM] long 
  6447 ;;  a               4   25[COMRAM] long 
  6448 ;; Auto vars:     Size  Location     Type
  6449 ;;  grs             4   40[COMRAM] unsigned long 
  6450 ;;  rem             4   33[COMRAM] unsigned long 
  6451 ;;  new_exp         2   38[COMRAM] short 
  6452 ;;  aexp            1   45[COMRAM] unsigned char 
  6453 ;;  bexp            1   44[COMRAM] unsigned char 
  6454 ;;  sign            1   37[COMRAM] unsigned char 
  6455 ;; Return value:  Size  Location     Type
  6456 ;;                  4   21[COMRAM] unsigned char 
  6457 ;; Registers used:
  6458 ;;		wreg, status,2, status,0
  6459 ;; Tracked objects:
  6460 ;;		On entry : 0/0
  6461 ;;		On exit  : 0/0
  6462 ;;		Unchanged: 0/0
  6463 ;; Data sizes:     COMRAM   BANK0   BANK1   BANK2   BANK3   BANK4   BANK5
  6464 ;;      Params:         8       0       0       0       0       0       0
  6465 ;;      Locals:        13       0       0       0       0       0       0
  6466 ;;      Temps:          4       0       0       0       0       0       0
  6467 ;;      Totals:        25       0       0       0       0       0       0
  6468 ;;Total ram usage:       25 bytes
  6469 ;; Hardware stack levels used: 1
  6470 ;; Hardware stack levels required when called: 1
  6471 ;; This function calls:
  6472 ;;		Nothing
  6473 ;; This function is called by:
  6474 ;;		_dashboard
  6475 ;; This function uses a non-reentrant model
  6476 ;;
  6477                           
  6478                           	psect	text31
  6479   000868                     __ptext31:
  6480                           	callstack 0
  6481   000868                     ___fldiv:
  6482                           	callstack 28
  6483   000868  5019               	movf	(___fldiv@b+3)^0,w,c
  6484   00086A  0B80               	andlw	128
  6485   00086C  6E26               	movwf	___fldiv@sign^0,c
  6486   00086E  5019               	movf	(___fldiv@b+3)^0,w,c
  6487   000870  2419               	addwf	(___fldiv@b+3)^0,w,c
  6488   000872  6E2D               	movwf	___fldiv@bexp^0,c
  6489   000874  AE18               	btfss	(___fldiv@b+2)^0,7,c
  6490   000876  EF3F  F004         	goto	u2641
  6491   00087A  EF41  F004         	goto	u2640
  6492   00087E                     u2641:
  6493   00087E  EF42  F004         	goto	l4359
  6494   000882                     u2640:
  6495   000882  802D               	bsf	___fldiv@bexp^0,0,c
  6496   000884                     l4359:
  6497   000884  502D               	movf	___fldiv@bexp^0,w,c
  6498   000886  B4D8               	btfsc	status,2,c
  6499   000888  EF48  F004         	goto	u2651
  6500   00088C  EF4A  F004         	goto	u2650
  6501   000890                     u2651:
  6502   000890  EF5F  F004         	goto	l4369
  6503   000894                     u2650:
  6504   000894  282D               	incf	___fldiv@bexp^0,w,c
  6505   000896  A4D8               	btfss	status,2,c
  6506   000898  EF50  F004         	goto	u2661
  6507   00089C  EF52  F004         	goto	u2660
  6508   0008A0                     u2661:
  6509   0008A0  EF5A  F004         	goto	l4365
  6510   0008A4                     u2660:
  6511   0008A4  0E00               	movlw	0
  6512   0008A6  6E16               	movwf	___fldiv@b^0,c
  6513   0008A8  0E00               	movlw	0
  6514   0008AA  6E17               	movwf	(___fldiv@b+1)^0,c
  6515   0008AC  0E00               	movlw	0
  6516   0008AE  6E18               	movwf	(___fldiv@b+2)^0,c
  6517   0008B0  0E00               	movlw	0
  6518   0008B2  6E19               	movwf	(___fldiv@b+3)^0,c
  6519   0008B4                     l4365:
  6520   0008B4  8E18               	bsf	(___fldiv@b+2)^0,7,c
  6521   0008B6  0E00               	movlw	0
  6522   0008B8  6E19               	movwf	(___fldiv@b+3)^0,c
  6523   0008BA  EF67  F004         	goto	l4371
  6524   0008BE                     l4369:
  6525   0008BE  0E00               	movlw	0
  6526   0008C0  6E16               	movwf	___fldiv@b^0,c
  6527   0008C2  0E00               	movlw	0
  6528   0008C4  6E17               	movwf	(___fldiv@b+1)^0,c
  6529   0008C6  0E00               	movlw	0
  6530   0008C8  6E18               	movwf	(___fldiv@b+2)^0,c
  6531   0008CA  0E00               	movlw	0
  6532   0008CC  6E19               	movwf	(___fldiv@b+3)^0,c
  6533   0008CE                     l4371:
  6534   0008CE  501D               	movf	(___fldiv@a+3)^0,w,c
  6535   0008D0  0B80               	andlw	128
  6536   0008D2  1A26               	xorwf	___fldiv@sign^0,f,c
  6537   0008D4  501D               	movf	(___fldiv@a+3)^0,w,c
  6538   0008D6  241D               	addwf	(___fldiv@a+3)^0,w,c
  6539   0008D8  6E2E               	movwf	___fldiv@aexp^0,c
  6540   0008DA  AE1C               	btfss	(___fldiv@a+2)^0,7,c
  6541   0008DC  EF72  F004         	goto	u2671
  6542   0008E0  EF74  F004         	goto	u2670
  6543   0008E4                     u2671:
  6544   0008E4  EF75  F004         	goto	l4379
  6545   0008E8                     u2670:
  6546   0008E8  802E               	bsf	___fldiv@aexp^0,0,c
  6547   0008EA                     l4379:
  6548   0008EA  502E               	movf	___fldiv@aexp^0,w,c
  6549   0008EC  B4D8               	btfsc	status,2,c
  6550   0008EE  EF7B  F004         	goto	u2681
  6551   0008F2  EF7D  F004         	goto	u2680
  6552   0008F6                     u2681:
  6553   0008F6  EF92  F004         	goto	l4389
  6554   0008FA                     u2680:
  6555   0008FA  282E               	incf	___fldiv@aexp^0,w,c
  6556   0008FC  A4D8               	btfss	status,2,c
  6557   0008FE  EF83  F004         	goto	u2691
  6558   000902  EF85  F004         	goto	u2690
  6559   000906                     u2691:
  6560   000906  EF8D  F004         	goto	l4385
  6561   00090A                     u2690:
  6562   00090A  0E00               	movlw	0
  6563   00090C  6E1A               	movwf	___fldiv@a^0,c
  6564   00090E  0E00               	movlw	0
  6565   000910  6E1B               	movwf	(___fldiv@a+1)^0,c
  6566   000912  0E00               	movlw	0
  6567   000914  6E1C               	movwf	(___fldiv@a+2)^0,c
  6568   000916  0E00               	movlw	0
  6569   000918  6E1D               	movwf	(___fldiv@a+3)^0,c
  6570   00091A                     l4385:
  6571   00091A  8E1C               	bsf	(___fldiv@a+2)^0,7,c
  6572   00091C  0E00               	movlw	0
  6573   00091E  6E1D               	movwf	(___fldiv@a+3)^0,c
  6574   000920  EF9A  F004         	goto	l4391
  6575   000924                     l4389:
  6576   000924  0E00               	movlw	0
  6577   000926  6E1A               	movwf	___fldiv@a^0,c
  6578   000928  0E00               	movlw	0
  6579   00092A  6E1B               	movwf	(___fldiv@a+1)^0,c
  6580   00092C  0E00               	movlw	0
  6581   00092E  6E1C               	movwf	(___fldiv@a+2)^0,c
  6582   000930  0E00               	movlw	0
  6583   000932  6E1D               	movwf	(___fldiv@a+3)^0,c
  6584   000934                     l4391:
  6585   000934  501A               	movf	___fldiv@a^0,w,c
  6586   000936  101B               	iorwf	(___fldiv@a+1)^0,w,c
  6587   000938  101C               	iorwf	(___fldiv@a+2)^0,w,c
  6588   00093A  101D               	iorwf	(___fldiv@a+3)^0,w,c
  6589   00093C  A4D8               	btfss	status,2,c
  6590   00093E  EFA3  F004         	goto	u2701
  6591   000942  EFA5  F004         	goto	u2700
  6592   000946                     u2701:
  6593   000946  EFBD  F004         	goto	l4403
  6594   00094A                     u2700:
  6595   00094A  0E00               	movlw	0
  6596   00094C  6E16               	movwf	___fldiv@b^0,c
  6597   00094E  0E00               	movlw	0
  6598   000950  6E17               	movwf	(___fldiv@b+1)^0,c
  6599   000952  0E00               	movlw	0
  6600   000954  6E18               	movwf	(___fldiv@b+2)^0,c
  6601   000956  0E00               	movlw	0
  6602   000958  6E19               	movwf	(___fldiv@b+3)^0,c
  6603   00095A  0E80               	movlw	128
  6604   00095C  1218               	iorwf	(___fldiv@b+2)^0,f,c
  6605   00095E  0E7F               	movlw	127
  6606   000960  1219               	iorwf	(___fldiv@b+3)^0,f,c
  6607   000962                     l4397:
  6608   000962  5026               	movf	___fldiv@sign^0,w,c
  6609   000964  1219               	iorwf	(___fldiv@b+3)^0,f,c
  6610   000966  C016  F016         	movff	___fldiv@b,?___fldiv
  6611   00096A  C017  F017         	movff	___fldiv@b+1,?___fldiv+1
  6612   00096E  C018  F018         	movff	___fldiv@b+2,?___fldiv+2
  6613   000972  C019  F019         	movff	___fldiv@b+3,?___fldiv+3
  6614   000976  EF00  F006         	goto	l2196
  6615   00097A                     l4403:
  6616   00097A  502D               	movf	___fldiv@bexp^0,w,c
  6617   00097C  A4D8               	btfss	status,2,c
  6618   00097E  EFC3  F004         	goto	u2711
  6619   000982  EFC5  F004         	goto	u2710
  6620   000986                     u2711:
  6621   000986  EFCF  F004         	goto	l4411
  6622   00098A                     u2710:
  6623   00098A  0E00               	movlw	0
  6624   00098C  6E16               	movwf	?___fldiv^0,c
  6625   00098E  0E00               	movlw	0
  6626   000990  6E17               	movwf	(?___fldiv+1)^0,c
  6627   000992  0E00               	movlw	0
  6628   000994  6E18               	movwf	(?___fldiv+2)^0,c
  6629   000996  0E00               	movlw	0
  6630   000998  6E19               	movwf	(?___fldiv+3)^0,c
  6631   00099A  EF00  F006         	goto	l2196
  6632   00099E                     l4411:
  6633   00099E  502E               	movf	___fldiv@aexp^0,w,c
  6634   0009A0  C02D  F01E         	movff	___fldiv@bexp,??___fldiv
  6635   0009A4  6A1F               	clrf	(??___fldiv+1)^0,c
  6636   0009A6  5E1E               	subwf	??___fldiv^0,f,c
  6637   0009A8  0E00               	movlw	0
  6638   0009AA  5A1F               	subwfb	(??___fldiv+1)^0,f,c
  6639   0009AC  0E7F               	movlw	127
  6640   0009AE  241E               	addwf	??___fldiv^0,w,c
  6641   0009B0  6E27               	movwf	___fldiv@new_exp^0,c
  6642   0009B2  0E00               	movlw	0
  6643   0009B4  201F               	addwfc	(??___fldiv+1)^0,w,c
  6644   0009B6  6E28               	movwf	(___fldiv@new_exp+1)^0,c
  6645   0009B8  C016  F022         	movff	___fldiv@b,___fldiv@rem
  6646   0009BC  C017  F023         	movff	___fldiv@b+1,___fldiv@rem+1
  6647   0009C0  C018  F024         	movff	___fldiv@b+2,___fldiv@rem+2
  6648   0009C4  C019  F025         	movff	___fldiv@b+3,___fldiv@rem+3
  6649   0009C8  0E00               	movlw	0
  6650   0009CA  6E16               	movwf	___fldiv@b^0,c
  6651   0009CC  0E00               	movlw	0
  6652   0009CE  6E17               	movwf	(___fldiv@b+1)^0,c
  6653   0009D0  0E00               	movlw	0
  6654   0009D2  6E18               	movwf	(___fldiv@b+2)^0,c
  6655   0009D4  0E00               	movlw	0
  6656   0009D6  6E19               	movwf	(___fldiv@b+3)^0,c
  6657   0009D8  0E00               	movlw	0
  6658   0009DA  6E29               	movwf	___fldiv@grs^0,c
  6659   0009DC  0E00               	movlw	0
  6660   0009DE  6E2A               	movwf	(___fldiv@grs+1)^0,c
  6661   0009E0  0E00               	movlw	0
  6662   0009E2  6E2B               	movwf	(___fldiv@grs+2)^0,c
  6663   0009E4  0E00               	movlw	0
  6664   0009E6  6E2C               	movwf	(___fldiv@grs+3)^0,c
  6665   0009E8  0E00               	movlw	0
  6666   0009EA  6E2E               	movwf	___fldiv@aexp^0,c
  6667   0009EC  EF30  F005         	goto	l2198
  6668   0009F0                     l4421:
  6669   0009F0  502E               	movf	___fldiv@aexp^0,w,c
  6670   0009F2  B4D8               	btfsc	status,2,c
  6671   0009F4  EFFE  F004         	goto	u2721
  6672   0009F8  EF00  F005         	goto	u2720
  6673   0009FC                     u2721:
  6674   0009FC  EF17  F005         	goto	l4429
  6675   000A00                     u2720:
  6676   000A00  90D8               	bcf	status,0,c
  6677   000A02  3622               	rlcf	___fldiv@rem^0,f,c
  6678   000A04  3623               	rlcf	(___fldiv@rem+1)^0,f,c
  6679   000A06  3624               	rlcf	(___fldiv@rem+2)^0,f,c
  6680   000A08  3625               	rlcf	(___fldiv@rem+3)^0,f,c
  6681   000A0A  90D8               	bcf	status,0,c
  6682   000A0C  3616               	rlcf	___fldiv@b^0,f,c
  6683   000A0E  3617               	rlcf	(___fldiv@b+1)^0,f,c
  6684   000A10  3618               	rlcf	(___fldiv@b+2)^0,f,c
  6685   000A12  3619               	rlcf	(___fldiv@b+3)^0,f,c
  6686   000A14  AE2C               	btfss	(___fldiv@grs+3)^0,7,c
  6687   000A16  EF0F  F005         	goto	u2731
  6688   000A1A  EF11  F005         	goto	u2730
  6689   000A1E                     u2731:
  6690   000A1E  EF12  F005         	goto	l2201
  6691   000A22                     u2730:
  6692   000A22  8016               	bsf	___fldiv@b^0,0,c
  6693   000A24                     l2201:
  6694   000A24  90D8               	bcf	status,0,c
  6695   000A26  3629               	rlcf	___fldiv@grs^0,f,c
  6696   000A28  362A               	rlcf	(___fldiv@grs+1)^0,f,c
  6697   000A2A  362B               	rlcf	(___fldiv@grs+2)^0,f,c
  6698   000A2C  362C               	rlcf	(___fldiv@grs+3)^0,f,c
  6699   000A2E                     l4429:
  6700   000A2E  501A               	movf	___fldiv@a^0,w,c
  6701   000A30  5C22               	subwf	___fldiv@rem^0,w,c
  6702   000A32  501B               	movf	(___fldiv@a+1)^0,w,c
  6703   000A34  5823               	subwfb	(___fldiv@rem+1)^0,w,c
  6704   000A36  501C               	movf	(___fldiv@a+2)^0,w,c
  6705   000A38  5824               	subwfb	(___fldiv@rem+2)^0,w,c
  6706   000A3A  501D               	movf	(___fldiv@a+3)^0,w,c
  6707   000A3C  5825               	subwfb	(___fldiv@rem+3)^0,w,c
  6708   000A3E  A0D8               	btfss	status,0,c
  6709   000A40  EF24  F005         	goto	u2741
  6710   000A44  EF26  F005         	goto	u2740
  6711   000A48                     u2741:
  6712   000A48  EF2F  F005         	goto	l4435
  6713   000A4C                     u2740:
  6714   000A4C  8C2C               	bsf	(___fldiv@grs+3)^0,6,c
  6715   000A4E  501A               	movf	___fldiv@a^0,w,c
  6716   000A50  5E22               	subwf	___fldiv@rem^0,f,c
  6717   000A52  501B               	movf	(___fldiv@a+1)^0,w,c
  6718   000A54  5A23               	subwfb	(___fldiv@rem+1)^0,f,c
  6719   000A56  501C               	movf	(___fldiv@a+2)^0,w,c
  6720   000A58  5A24               	subwfb	(___fldiv@rem+2)^0,f,c
  6721   000A5A  501D               	movf	(___fldiv@a+3)^0,w,c
  6722   000A5C  5A25               	subwfb	(___fldiv@rem+3)^0,f,c
  6723   000A5E                     l4435:
  6724   000A5E  2A2E               	incf	___fldiv@aexp^0,f,c
  6725   000A60                     l2198:
  6726   000A60  0E19               	movlw	25
  6727   000A62  642E               	cpfsgt	___fldiv@aexp^0,c
  6728   000A64  EF36  F005         	goto	u2751
  6729   000A68  EF38  F005         	goto	u2750
  6730   000A6C                     u2751:
  6731   000A6C  EFF8  F004         	goto	l4421
  6732   000A70                     u2750:
  6733   000A70  5022               	movf	___fldiv@rem^0,w,c
  6734   000A72  1023               	iorwf	(___fldiv@rem+1)^0,w,c
  6735   000A74  1024               	iorwf	(___fldiv@rem+2)^0,w,c
  6736   000A76  1025               	iorwf	(___fldiv@rem+3)^0,w,c
  6737   000A78  B4D8               	btfsc	status,2,c
  6738   000A7A  EF41  F005         	goto	u2761
  6739   000A7E  EF43  F005         	goto	u2760
  6740   000A82                     u2761:
  6741   000A82  EF5B  F005         	goto	l4447
  6742   000A86                     u2760:
  6743   000A86  8029               	bsf	___fldiv@grs^0,0,c
  6744   000A88  EF5B  F005         	goto	l4447
  6745   000A8C                     l4441:
  6746   000A8C  90D8               	bcf	status,0,c
  6747   000A8E  3616               	rlcf	___fldiv@b^0,f,c
  6748   000A90  3617               	rlcf	(___fldiv@b+1)^0,f,c
  6749   000A92  3618               	rlcf	(___fldiv@b+2)^0,f,c
  6750   000A94  3619               	rlcf	(___fldiv@b+3)^0,f,c
  6751   000A96  AE2C               	btfss	(___fldiv@grs+3)^0,7,c
  6752   000A98  EF50  F005         	goto	u2771
  6753   000A9C  EF52  F005         	goto	u2770
  6754   000AA0                     u2771:
  6755   000AA0  EF53  F005         	goto	l2207
  6756   000AA4                     u2770:
  6757   000AA4  8016               	bsf	___fldiv@b^0,0,c
  6758   000AA6                     l2207:
  6759   000AA6  90D8               	bcf	status,0,c
  6760   000AA8  3629               	rlcf	___fldiv@grs^0,f,c
  6761   000AAA  362A               	rlcf	(___fldiv@grs+1)^0,f,c
  6762   000AAC  362B               	rlcf	(___fldiv@grs+2)^0,f,c
  6763   000AAE  362C               	rlcf	(___fldiv@grs+3)^0,f,c
  6764   000AB0  0627               	decf	___fldiv@new_exp^0,f,c
  6765   000AB2  A0D8               	btfss	status,0,c
  6766   000AB4  0628               	decf	(___fldiv@new_exp+1)^0,f,c
  6767   000AB6                     l4447:
  6768   000AB6  AE18               	btfss	(___fldiv@b+2)^0,7,c
  6769   000AB8  EF60  F005         	goto	u2781
  6770   000ABC  EF62  F005         	goto	u2780
  6771   000AC0                     u2781:
  6772   000AC0  EF46  F005         	goto	l4441
  6773   000AC4                     u2780:
  6774   000AC4  0E00               	movlw	0
  6775   000AC6  6E2E               	movwf	___fldiv@aexp^0,c
  6776   000AC8  AE2C               	btfss	(___fldiv@grs+3)^0,7,c
  6777   000ACA  EF69  F005         	goto	u2791
  6778   000ACE  EF6B  F005         	goto	u2790
  6779   000AD2                     u2791:
  6780   000AD2  EF8F  F005         	goto	l2209
  6781   000AD6                     u2790:
  6782   000AD6  0EFF               	movlw	255
  6783   000AD8  1429               	andwf	___fldiv@grs^0,w,c
  6784   000ADA  6E1E               	movwf	??___fldiv^0,c
  6785   000ADC  0EFF               	movlw	255
  6786   000ADE  142A               	andwf	(___fldiv@grs+1)^0,w,c
  6787   000AE0  6E1F               	movwf	(??___fldiv+1)^0,c
  6788   000AE2  0EFF               	movlw	255
  6789   000AE4  142B               	andwf	(___fldiv@grs+2)^0,w,c
  6790   000AE6  6E20               	movwf	(??___fldiv+2)^0,c
  6791   000AE8  0E7F               	movlw	127
  6792   000AEA  142C               	andwf	(___fldiv@grs+3)^0,w,c
  6793   000AEC  6E21               	movwf	(??___fldiv+3)^0,c
  6794   000AEE  501E               	movf	??___fldiv^0,w,c
  6795   000AF0  101F               	iorwf	(??___fldiv+1)^0,w,c
  6796   000AF2  1020               	iorwf	(??___fldiv+2)^0,w,c
  6797   000AF4  1021               	iorwf	(??___fldiv+3)^0,w,c
  6798   000AF6  B4D8               	btfsc	status,2,c
  6799   000AF8  EF80  F005         	goto	u2801
  6800   000AFC  EF82  F005         	goto	u2800
  6801   000B00                     u2801:
  6802   000B00  EF86  F005         	goto	l2210
  6803   000B04                     u2800:
  6804   000B04                     l4455:
  6805   000B04  0E01               	movlw	1
  6806   000B06  6E2E               	movwf	___fldiv@aexp^0,c
  6807   000B08  EF8F  F005         	goto	l2209
  6808   000B0C                     l2210:
  6809   000B0C  A016               	btfss	___fldiv@b^0,0,c
  6810   000B0E  EF8B  F005         	goto	u2811
  6811   000B12  EF8D  F005         	goto	u2810
  6812   000B16                     u2811:
  6813   000B16  EF8F  F005         	goto	l2209
  6814   000B1A                     u2810:
  6815   000B1A  EF82  F005         	goto	l4455
  6816   000B1E                     l2209:
  6817   000B1E  502E               	movf	___fldiv@aexp^0,w,c
  6818   000B20  B4D8               	btfsc	status,2,c
  6819   000B22  EF95  F005         	goto	u2821
  6820   000B26  EF97  F005         	goto	u2820
  6821   000B2A                     u2821:
  6822   000B2A  EFBB  F005         	goto	l4467
  6823   000B2E                     u2820:
  6824   000B2E  0E01               	movlw	1
  6825   000B30  2616               	addwf	___fldiv@b^0,f,c
  6826   000B32  0E00               	movlw	0
  6827   000B34  2217               	addwfc	(___fldiv@b+1)^0,f,c
  6828   000B36  2218               	addwfc	(___fldiv@b+2)^0,f,c
  6829   000B38  2219               	addwfc	(___fldiv@b+3)^0,f,c
  6830   000B3A  A019               	btfss	(___fldiv@b+3)^0,0,c
  6831   000B3C  EFA2  F005         	goto	u2831
  6832   000B40  EFA4  F005         	goto	u2830
  6833   000B44                     u2831:
  6834   000B44  EFBB  F005         	goto	l4467
  6835   000B48                     u2830:
  6836   000B48  C016  F01E         	movff	___fldiv@b,??___fldiv
  6837   000B4C  C017  F01F         	movff	___fldiv@b+1,??___fldiv+1
  6838   000B50  C018  F020         	movff	___fldiv@b+2,??___fldiv+2
  6839   000B54  C019  F021         	movff	___fldiv@b+3,??___fldiv+3
  6840   000B58  3421               	rlcf	(??___fldiv+3)^0,w,c
  6841   000B5A  3221               	rrcf	(??___fldiv+3)^0,f,c
  6842   000B5C  3220               	rrcf	(??___fldiv+2)^0,f,c
  6843   000B5E  321F               	rrcf	(??___fldiv+1)^0,f,c
  6844   000B60  321E               	rrcf	??___fldiv^0,f,c
  6845   000B62  C01E  F016         	movff	??___fldiv,___fldiv@b
  6846   000B66  C01F  F017         	movff	??___fldiv+1,___fldiv@b+1
  6847   000B6A  C020  F018         	movff	??___fldiv+2,___fldiv@b+2
  6848   000B6E  C021  F019         	movff	??___fldiv+3,___fldiv@b+3
  6849   000B72  4A27               	infsnz	___fldiv@new_exp^0,f,c
  6850   000B74  2A28               	incf	(___fldiv@new_exp+1)^0,f,c
  6851   000B76                     l4467:
  6852   000B76  BE28               	btfsc	(___fldiv@new_exp+1)^0,7,c
  6853   000B78  EFC6  F005         	goto	u2841
  6854   000B7C  5028               	movf	(___fldiv@new_exp+1)^0,w,c
  6855   000B7E  E108               	bnz	u2840
  6856   000B80  2827               	incf	___fldiv@new_exp^0,w,c
  6857   000B82  A0D8               	btfss	status,0,c
  6858   000B84  EFC6  F005         	goto	u2841
  6859   000B88  EFC8  F005         	goto	u2840
  6860   000B8C                     u2841:
  6861   000B8C  EFD3  F005         	goto	l4471
  6862   000B90                     u2840:
  6863   000B90  0E00               	movlw	0
  6864   000B92  6E28               	movwf	(___fldiv@new_exp+1)^0,c
  6865   000B94  6827               	setf	___fldiv@new_exp^0,c
  6866   000B96  0E00               	movlw	0
  6867   000B98  6E16               	movwf	___fldiv@b^0,c
  6868   000B9A  0E00               	movlw	0
  6869   000B9C  6E17               	movwf	(___fldiv@b+1)^0,c
  6870   000B9E  0E00               	movlw	0
  6871   000BA0  6E18               	movwf	(___fldiv@b+2)^0,c
  6872   000BA2  0E00               	movlw	0
  6873   000BA4  6E19               	movwf	(___fldiv@b+3)^0,c
  6874   000BA6                     l4471:
  6875   000BA6  BE28               	btfsc	(___fldiv@new_exp+1)^0,7,c
  6876   000BA8  EFE0  F005         	goto	u2850
  6877   000BAC  5028               	movf	(___fldiv@new_exp+1)^0,w,c
  6878   000BAE  E106               	bnz	u2851
  6879   000BB0  0427               	decf	___fldiv@new_exp^0,w,c
  6880   000BB2  B0D8               	btfsc	status,0,c
  6881   000BB4  EFDE  F005         	goto	u2851
  6882   000BB8  EFE0  F005         	goto	u2850
  6883   000BBC                     u2851:
  6884   000BBC  EFEE  F005         	goto	l4475
  6885   000BC0                     u2850:
  6886   000BC0  0E00               	movlw	0
  6887   000BC2  6E28               	movwf	(___fldiv@new_exp+1)^0,c
  6888   000BC4  0E00               	movlw	0
  6889   000BC6  6E27               	movwf	___fldiv@new_exp^0,c
  6890   000BC8  0E00               	movlw	0
  6891   000BCA  6E16               	movwf	___fldiv@b^0,c
  6892   000BCC  0E00               	movlw	0
  6893   000BCE  6E17               	movwf	(___fldiv@b+1)^0,c
  6894   000BD0  0E00               	movlw	0
  6895   000BD2  6E18               	movwf	(___fldiv@b+2)^0,c
  6896   000BD4  0E00               	movlw	0
  6897   000BD6  6E19               	movwf	(___fldiv@b+3)^0,c
  6898   000BD8  0E00               	movlw	0
  6899   000BDA  6E26               	movwf	___fldiv@sign^0,c
  6900   000BDC                     l4475:
  6901   000BDC  C027  F02D         	movff	___fldiv@new_exp,___fldiv@bexp
  6902   000BE0  A02D               	btfss	___fldiv@bexp^0,0,c
  6903   000BE2  EFF5  F005         	goto	u2861
  6904   000BE6  EFF7  F005         	goto	u2860
  6905   000BEA                     u2861:
  6906   000BEA  EFFA  F005         	goto	l4481
  6907   000BEE                     u2860:
  6908   000BEE  8E18               	bsf	(___fldiv@b+2)^0,7,c
  6909   000BF0  EFFB  F005         	goto	l4483
  6910   000BF4                     l4481:
  6911   000BF4  9E18               	bcf	(___fldiv@b+2)^0,7,c
  6912   000BF6                     l4483:
  6913   000BF6  90D8               	bcf	status,0,c
  6914   000BF8  302D               	rrcf	___fldiv@bexp^0,w,c
  6915   000BFA  6E19               	movwf	(___fldiv@b+3)^0,c
  6916   000BFC  EFB1  F004         	goto	l4397
  6917   000C00                     l2196:
  6918   000C00  0012               	return		;funcret
  6919   000C02                     __end_of___fldiv:
  6920                           	callstack 0
  6921                           
  6922 ;; *************** function _clear_log *****************
  6923 ;; Defined at:
  6924 ;;		line 437 in file "blackbox.c"
  6925 ;; Parameters:    Size  Location     Type
  6926 ;;		None
  6927 ;; Auto vars:     Size  Location     Type
  6928 ;;  i               2    7[COMRAM] unsigned int 
  6929 ;;  i               2    5[COMRAM] unsigned int 
  6930 ;; Return value:  Size  Location     Type
  6931 ;;                  1    wreg      void 
  6932 ;; Registers used:
  6933 ;;		wreg, fsr0l, fsr0h, status,2, status,0, tblptrl, tblptrh, tblptru, cstack
  6934 ;; Tracked objects:
  6935 ;;		On entry : 0/0
  6936 ;;		On exit  : 0/0
  6937 ;;		Unchanged: 0/0
  6938 ;; Data sizes:     COMRAM   BANK0   BANK1   BANK2   BANK3   BANK4   BANK5
  6939 ;;      Params:         0       0       0       0       0       0       0
  6940 ;;      Locals:         4       0       0       0       0       0       0
  6941 ;;      Temps:          0       0       0       0       0       0       0
  6942 ;;      Totals:         4       0       0       0       0       0       0
  6943 ;;Total ram usage:        4 bytes
  6944 ;; Hardware stack levels used: 1
  6945 ;; Hardware stack levels required when called: 3
  6946 ;; This function calls:
  6947 ;;		_clcd_print
  6948 ;;		_clcd_write
  6949 ;; This function is called by:
  6950 ;;		_main
  6951 ;; This function uses a non-reentrant model
  6952 ;;
  6953                           
  6954                           	psect	text32
  6955   0020DC                     __ptext32:
  6956                           	callstack 0
  6957   0020DC                     _clear_log:
  6958                           	callstack 27
  6959   0020DC                     
  6960                           ;blackbox.c: 439:     for(unsigned int i=0;i<4000;i++)
  6961   0020DC  0E00               	movlw	0
  6962   0020DE  6E07               	movwf	(clear_log@i+1)^0,c
  6963   0020E0  0E00               	movlw	0
  6964   0020E2  6E06               	movwf	clear_log@i^0,c
  6965   0020E4                     l5077:
  6966                           
  6967                           ;blackbox.c: 440:     {;blackbox.c: 441:         clcd_print("Clearing logs...",(0x80 + (
      +                          0)));
  6968   0020E4  0ED3               	movlw	low STR_17
  6969   0020E6  6E03               	movwf	clcd_print@data^0,c
  6970   0020E8  0E2E               	movlw	high STR_17
  6971   0020EA  6E04               	movwf	(clcd_print@data+1)^0,c
  6972   0020EC  0E80               	movlw	128
  6973   0020EE  6E05               	movwf	clcd_print@addr^0,c
  6974   0020F0  ECAE  F011         	call	_clcd_print	;wreg free
  6975   0020F4                     
  6976                           ;blackbox.c: 442:     }
  6977   0020F4  4A06               	infsnz	clear_log@i^0,f,c
  6978   0020F6  2A07               	incf	(clear_log@i+1)^0,f,c
  6979   0020F8  0EA0               	movlw	160
  6980   0020FA  5C06               	subwf	clear_log@i^0,w,c
  6981   0020FC  0E0F               	movlw	15
  6982   0020FE  5807               	subwfb	(clear_log@i+1)^0,w,c
  6983   002100  A0D8               	btfss	status,0,c
  6984   002102  EF85  F010         	goto	u3691
  6985   002106  EF87  F010         	goto	u3690
  6986   00210A                     u3691:
  6987   00210A  EF72  F010         	goto	l5077
  6988   00210E                     u3690:
  6989   00210E                     
  6990                           ;blackbox.c: 443:     no_event=0;
  6991   00210E  0E00               	movlw	0
  6992   002110  6E49               	movwf	(_no_event+1)^0,c
  6993   002112  0E00               	movlw	0
  6994   002114  6E48               	movwf	_no_event^0,c
  6995                           
  6996                           ;blackbox.c: 444:     addr=0;
  6997   002116  0E00               	movlw	0
  6998   002118  6E5B               	movwf	_addr^0,c
  6999                           
  7000                           ;blackbox.c: 445:     main_flag=1;
  7001   00211A  0E00               	movlw	0
  7002   00211C  6E4D               	movwf	(_main_flag+1)^0,c
  7003   00211E  0E01               	movlw	1
  7004   002120  6E4C               	movwf	_main_flag^0,c
  7005   002122                     
  7006                           ;blackbox.c: 446:     clcd_write(0x01, 0);
  7007   002122  0E00               	movlw	0
  7008   002124  6E01               	movwf	clcd_write@control_bit^0,c
  7009   002126  0E01               	movlw	1
  7010   002128  EC63  F013         	call	_clcd_write
  7011   00212C                     
  7012                           ;blackbox.c: 447:     for(unsigned int i=0;i<4000;i++)
  7013   00212C  0E00               	movlw	0
  7014   00212E  6E09               	movwf	(clear_log@i_696+1)^0,c
  7015   002130  0E00               	movlw	0
  7016   002132  6E08               	movwf	clear_log@i_696^0,c
  7017   002134                     l5093:
  7018                           
  7019                           ;blackbox.c: 448:     {;blackbox.c: 449:         clcd_print("Logs deleted",(0x80 + (0)))
      +                          ;
  7020   002134  0E8C               	movlw	low STR_18
  7021   002136  6E03               	movwf	clcd_print@data^0,c
  7022   002138  0E2F               	movlw	high STR_18
  7023   00213A  6E04               	movwf	(clcd_print@data+1)^0,c
  7024   00213C  0E80               	movlw	128
  7025   00213E  6E05               	movwf	clcd_print@addr^0,c
  7026   002140  ECAE  F011         	call	_clcd_print	;wreg free
  7027   002144                     
  7028                           ;blackbox.c: 450:     }
  7029   002144  4A08               	infsnz	clear_log@i_696^0,f,c
  7030   002146  2A09               	incf	(clear_log@i_696+1)^0,f,c
  7031   002148  0EA0               	movlw	160
  7032   00214A  5C08               	subwf	clear_log@i_696^0,w,c
  7033   00214C  0E0F               	movlw	15
  7034   00214E  5809               	subwfb	(clear_log@i_696+1)^0,w,c
  7035   002150  A0D8               	btfss	status,0,c
  7036   002152  EFAD  F010         	goto	u3701
  7037   002156  EFAF  F010         	goto	u3700
  7038   00215A                     u3701:
  7039   00215A  EF9A  F010         	goto	l5093
  7040   00215E                     u3700:
  7041   00215E                     
  7042                           ;blackbox.c: 451:     clcd_write(0x01, 0);
  7043   00215E  0E00               	movlw	0
  7044   002160  6E01               	movwf	clcd_write@control_bit^0,c
  7045   002162  0E01               	movlw	1
  7046   002164  EC63  F013         	call	_clcd_write
  7047   002168  0012               	return		;funcret
  7048   00216A                     __end_of_clear_log:
  7049                           	callstack 0
  7050                           
  7051 ;; *************** function _change_pass *****************
  7052 ;; Defined at:
  7053 ;;		line 630 in file "blackbox.c"
  7054 ;; Parameters:    Size  Location     Type
  7055 ;;		None
  7056 ;; Auto vars:     Size  Location     Type
  7057 ;;  i               2   21[COMRAM] unsigned int 
  7058 ;;  i               2   19[COMRAM] unsigned int 
  7059 ;;  i               2   23[COMRAM] int 
  7060 ;;  address         1   18[COMRAM] unsigned char 
  7061 ;; Return value:  Size  Location     Type
  7062 ;;                  1    wreg      void 
  7063 ;; Registers used:
  7064 ;;		wreg, fsr0l, fsr0h, fsr1l, fsr1h, fsr2l, fsr2h, status,2, status,0, tblptrl, tblptrh, tblptru, cstack
  7065 ;; Tracked objects:
  7066 ;;		On entry : 0/0
  7067 ;;		On exit  : 0/0
  7068 ;;		Unchanged: 0/0
  7069 ;; Data sizes:     COMRAM   BANK0   BANK1   BANK2   BANK3   BANK4   BANK5
  7070 ;;      Params:         0       0       0       0       0       0       0
  7071 ;;      Locals:         7       0       0       0       0       0       0
  7072 ;;      Temps:          0       0       0       0       0       0       0
  7073 ;;      Totals:         7       0       0       0       0       0       0
  7074 ;;Total ram usage:        7 bytes
  7075 ;; Hardware stack levels used: 1
  7076 ;; Hardware stack levels required when called: 4
  7077 ;; This function calls:
  7078 ;;		_clcd_print
  7079 ;;		_clcd_putch
  7080 ;;		_clcd_write
  7081 ;;		_strcmp
  7082 ;;		_write_24c02
  7083 ;; This function is called by:
  7084 ;;		_main
  7085 ;; This function uses a non-reentrant model
  7086 ;;
  7087                           
  7088                           	psect	text33
  7089   000494                     __ptext33:
  7090                           	callstack 0
  7091   000494                     _change_pass:
  7092                           	callstack 26
  7093   000494                     
  7094                           ;blackbox.c: 632:     if(count < 4 && pass_flag==0)
  7095   000494  0E04               	movlw	4
  7096   000496  6059               	cpfslt	_count^0,c
  7097   000498  EF50  F002         	goto	u4001
  7098   00049C  EF52  F002         	goto	u4000
  7099   0004A0                     u4001:
  7100   0004A0  EFD3  F002         	goto	l5303
  7101   0004A4                     u4000:
  7102   0004A4  0100               	movlb	0	; () banked
  7103   0004A6  5186               	movf	_pass_flag& (0+255),w,b
  7104   0004A8  1187               	iorwf	(_pass_flag+1)& (0+255),w,b
  7105   0004AA  A4D8               	btfss	status,2,c
  7106   0004AC  EF5A  F002         	goto	u4011
  7107   0004B0  EF5C  F002         	goto	u4010
  7108   0004B4                     u4011:
  7109   0004B4  EFD3  F002         	goto	l5303
  7110   0004B8                     u4010:
  7111   0004B8                     
  7112                           ; BSR set to: 0
  7113                           ;blackbox.c: 633:     {;blackbox.c: 634:         clcd_print("Enter New Passwd", (0x80 + 
      +                          (0)));
  7114   0004B8  0EE4               	movlw	low STR_22
  7115   0004BA  6E03               	movwf	clcd_print@data^0,c
  7116   0004BC  0E2E               	movlw	high STR_22
  7117   0004BE  6E04               	movwf	(clcd_print@data+1)^0,c
  7118   0004C0  0E80               	movlw	128
  7119   0004C2  6E05               	movwf	clcd_print@addr^0,c
  7120   0004C4  ECAE  F011         	call	_clcd_print	;wreg free
  7121   0004C8                     
  7122                           ;blackbox.c: 635:         if (key == 11)
  7123   0004C8  0E0B               	movlw	11
  7124   0004CA  185C               	xorwf	_key^0,w,c
  7125   0004CC  A4D8               	btfss	status,2,c
  7126   0004CE  EF6B  F002         	goto	u4021
  7127   0004D2  EF6D  F002         	goto	u4020
  7128   0004D6                     u4021:
  7129   0004D6  EF7C  F002         	goto	l5283
  7130   0004DA                     u4020:
  7131   0004DA                     
  7132                           ;blackbox.c: 636:         {;blackbox.c: 637:             usr_pass[count] = '0';
  7133   0004DA  5059               	movf	_count^0,w,c
  7134   0004DC  0F9E               	addlw	low _usr_pass
  7135   0004DE  6ED9               	movwf	fsr2l,c
  7136   0004E0  6ADA               	clrf	fsr2h,c
  7137   0004E2  0E30               	movlw	48
  7138   0004E4  6EDF               	movwf	indf2,c
  7139   0004E6                     
  7140                           ;blackbox.c: 638:             clcd_putch('*', (0xC0 + (count)));
  7141   0004E6  5059               	movf	_count^0,w,c
  7142   0004E8  0FC0               	addlw	192
  7143   0004EA  6E0D               	movwf	clcd_putch@addr^0,c
  7144   0004EC  0E2A               	movlw	42
  7145   0004EE  ECE6  F013         	call	_clcd_putch
  7146   0004F2                     l5281:
  7147                           
  7148                           ;blackbox.c: 639:             count++;
  7149   0004F2  2A59               	incf	_count^0,f,c
  7150                           
  7151                           ;blackbox.c: 640:         }
  7152   0004F4  EF93  F002         	goto	l5291
  7153   0004F8                     l5283:
  7154   0004F8  0E0C               	movlw	12
  7155   0004FA  185C               	xorwf	_key^0,w,c
  7156   0004FC  A4D8               	btfss	status,2,c
  7157   0004FE  EF83  F002         	goto	u4031
  7158   000502  EF85  F002         	goto	u4030
  7159   000506                     u4031:
  7160   000506  EF93  F002         	goto	l5291
  7161   00050A                     u4030:
  7162   00050A                     
  7163                           ;blackbox.c: 642:         {;blackbox.c: 643:             usr_pass[count] = '1';
  7164   00050A  5059               	movf	_count^0,w,c
  7165   00050C  0F9E               	addlw	low _usr_pass
  7166   00050E  6ED9               	movwf	fsr2l,c
  7167   000510  6ADA               	clrf	fsr2h,c
  7168   000512  0E31               	movlw	49
  7169   000514  6EDF               	movwf	indf2,c
  7170   000516                     
  7171                           ;blackbox.c: 644:             clcd_putch('*', (0xC0 + (count)));
  7172   000516  5059               	movf	_count^0,w,c
  7173   000518  0FC0               	addlw	192
  7174   00051A  6E0D               	movwf	clcd_putch@addr^0,c
  7175   00051C  0E2A               	movlw	42
  7176   00051E  ECE6  F013         	call	_clcd_putch
  7177   000522  EF79  F002         	goto	l5281
  7178   000526                     l5291:
  7179                           
  7180                           ;blackbox.c: 647:         if (delay1++ == 5)
  7181   000526  0E01               	movlw	1
  7182   000528  263E               	addwf	_delay1^0,f,c
  7183   00052A  0E00               	movlw	0
  7184   00052C  223F               	addwfc	(_delay1+1)^0,f,c
  7185   00052E  2240               	addwfc	(_delay1+2)^0,f,c
  7186   000530  2241               	addwfc	(_delay1+3)^0,f,c
  7187   000532  0E06               	movlw	6
  7188   000534  183E               	xorwf	_delay1^0,w,c
  7189   000536  103F               	iorwf	(_delay1+1)^0,w,c
  7190   000538  1040               	iorwf	(_delay1+2)^0,w,c
  7191   00053A  1041               	iorwf	(_delay1+3)^0,w,c
  7192   00053C  A4D8               	btfss	status,2,c
  7193   00053E  EFA3  F002         	goto	u4041
  7194   000542  EFA5  F002         	goto	u4040
  7195   000546                     u4041:
  7196   000546  EFAD  F002         	goto	l5295
  7197   00054A                     u4040:
  7198   00054A                     
  7199                           ;blackbox.c: 648:         {;blackbox.c: 649:             clcd_putch('_', (0xC0 + (count)
      +                          ));
  7200   00054A  5059               	movf	_count^0,w,c
  7201   00054C  0FC0               	addlw	192
  7202   00054E  6E0D               	movwf	clcd_putch@addr^0,c
  7203   000550  0E5F               	movlw	95
  7204   000552  ECE6  F013         	call	_clcd_putch
  7205                           
  7206                           ;blackbox.c: 650:         }
  7207   000556  EFF7  F002         	goto	l5315
  7208   00055A                     l5295:
  7209   00055A  0E0A               	movlw	10
  7210   00055C  183E               	xorwf	_delay1^0,w,c
  7211   00055E  103F               	iorwf	(_delay1+1)^0,w,c
  7212   000560  1040               	iorwf	(_delay1+2)^0,w,c
  7213   000562  1041               	iorwf	(_delay1+3)^0,w,c
  7214   000564  A4D8               	btfss	status,2,c
  7215   000566  EFB7  F002         	goto	u4051
  7216   00056A  EFB9  F002         	goto	u4050
  7217   00056E                     u4051:
  7218   00056E  EFC9  F002         	goto	l5301
  7219   000572                     u4050:
  7220   000572                     
  7221                           ;blackbox.c: 652:         {;blackbox.c: 653:             delay1 = 0;
  7222   000572  0E00               	movlw	0
  7223   000574  6E3E               	movwf	_delay1^0,c
  7224   000576  0E00               	movlw	0
  7225   000578  6E3F               	movwf	(_delay1+1)^0,c
  7226   00057A  0E00               	movlw	0
  7227   00057C  6E40               	movwf	(_delay1+2)^0,c
  7228   00057E  0E00               	movlw	0
  7229   000580  6E41               	movwf	(_delay1+3)^0,c
  7230   000582                     
  7231                           ;blackbox.c: 654:             clcd_putch(' ', (0xC0 + (count)));
  7232   000582  5059               	movf	_count^0,w,c
  7233   000584  0FC0               	addlw	192
  7234   000586  6E0D               	movwf	clcd_putch@addr^0,c
  7235   000588  0E20               	movlw	32
  7236   00058A  ECE6  F013         	call	_clcd_putch
  7237                           
  7238                           ;blackbox.c: 655:         }
  7239   00058E  EFF7  F002         	goto	l5315
  7240   000592                     l5301:
  7241                           
  7242                           ;blackbox.c: 657:         {;blackbox.c: 658:             delay1=0;
  7243   000592  0E00               	movlw	0
  7244   000594  6E3E               	movwf	_delay1^0,c
  7245   000596  0E00               	movlw	0
  7246   000598  6E3F               	movwf	(_delay1+1)^0,c
  7247   00059A  0E00               	movlw	0
  7248   00059C  6E40               	movwf	(_delay1+2)^0,c
  7249   00059E  0E00               	movlw	0
  7250   0005A0  6E41               	movwf	(_delay1+3)^0,c
  7251   0005A2  EFF7  F002         	goto	l5315
  7252   0005A6                     l5303:
  7253   0005A6  0E04               	movlw	4
  7254   0005A8  1859               	xorwf	_count^0,w,c
  7255   0005AA  A4D8               	btfss	status,2,c
  7256   0005AC  EFDA  F002         	goto	u4061
  7257   0005B0  EFDC  F002         	goto	u4060
  7258   0005B4                     u4061:
  7259   0005B4  EFF7  F002         	goto	l5315
  7260   0005B8                     u4060:
  7261   0005B8  0100               	movlb	0	; () banked
  7262   0005BA  5186               	movf	_pass_flag& (0+255),w,b
  7263   0005BC  1187               	iorwf	(_pass_flag+1)& (0+255),w,b
  7264   0005BE  A4D8               	btfss	status,2,c
  7265   0005C0  EFE4  F002         	goto	u4071
  7266   0005C4  EFE6  F002         	goto	u4070
  7267   0005C8                     u4071:
  7268   0005C8  EFF7  F002         	goto	l5315
  7269   0005CC                     u4070:
  7270   0005CC                     
  7271                           ; BSR set to: 0
  7272                           ;blackbox.c: 663:     {;blackbox.c: 664:         usr_pass[count] = '\0';
  7273   0005CC  5059               	movf	_count^0,w,c
  7274   0005CE  0F9E               	addlw	low _usr_pass
  7275   0005D0  6ED9               	movwf	fsr2l,c
  7276   0005D2  6ADA               	clrf	fsr2h,c
  7277   0005D4  6ADF               	clrf	indf2,c
  7278   0005D6                     
  7279                           ; BSR set to: 0
  7280                           ;blackbox.c: 665:         count=0;
  7281   0005D6  0E00               	movlw	0
  7282   0005D8  6E59               	movwf	_count^0,c
  7283   0005DA                     
  7284                           ; BSR set to: 0
  7285                           ;blackbox.c: 666:         clcd_write(0x01, 0);
  7286   0005DA  0E00               	movlw	0
  7287   0005DC  6E01               	movwf	clcd_write@control_bit^0,c
  7288   0005DE  0E01               	movlw	1
  7289   0005E0  EC63  F013         	call	_clcd_write
  7290   0005E4                     
  7291                           ;blackbox.c: 667:         pass_flag=1;
  7292   0005E4  0E00               	movlw	0
  7293   0005E6  0100               	movlb	0	; () banked
  7294   0005E8  6F87               	movwf	(_pass_flag+1)& (0+255),b
  7295   0005EA  0E01               	movlw	1
  7296   0005EC  6F86               	movwf	_pass_flag& (0+255),b
  7297   0005EE                     l5315:
  7298                           
  7299                           ;blackbox.c: 670:     if (count1<4 && pass_flag==1)
  7300   0005EE  0E04               	movlw	4
  7301   0005F0  6058               	cpfslt	_count1^0,c
  7302   0005F2  EFFD  F002         	goto	u4081
  7303   0005F6  EFFF  F002         	goto	u4080
  7304   0005FA                     u4081:
  7305   0005FA  EF7E  F003         	goto	l5349
  7306   0005FE                     u4080:
  7307   0005FE  0100               	movlb	0	; () banked
  7308   000600  0586               	decf	_pass_flag& (0+255),w,b
  7309   000602  1187               	iorwf	(_pass_flag+1)& (0+255),w,b
  7310   000604  A4D8               	btfss	status,2,c
  7311   000606  EF07  F003         	goto	u4091
  7312   00060A  EF09  F003         	goto	u4090
  7313   00060E                     u4091:
  7314   00060E  EF7E  F003         	goto	l5349
  7315   000612                     u4090:
  7316   000612                     
  7317                           ; BSR set to: 0
  7318                           ;blackbox.c: 671:     {;blackbox.c: 672:         clcd_print("Re-Enter Pass", (0x80 + (0)
      +                          ));
  7319   000612  0E7E               	movlw	low STR_23
  7320   000614  6E03               	movwf	clcd_print@data^0,c
  7321   000616  0E2F               	movlw	high STR_23
  7322   000618  6E04               	movwf	(clcd_print@data+1)^0,c
  7323   00061A  0E80               	movlw	128
  7324   00061C  6E05               	movwf	clcd_print@addr^0,c
  7325   00061E  ECAE  F011         	call	_clcd_print	;wreg free
  7326   000622                     
  7327                           ;blackbox.c: 673:         if (key == 11)
  7328   000622  0E0B               	movlw	11
  7329   000624  185C               	xorwf	_key^0,w,c
  7330   000626  A4D8               	btfss	status,2,c
  7331   000628  EF18  F003         	goto	u4101
  7332   00062C  EF1A  F003         	goto	u4100
  7333   000630                     u4101:
  7334   000630  EF29  F003         	goto	l5329
  7335   000634                     u4100:
  7336   000634                     
  7337                           ;blackbox.c: 674:         {;blackbox.c: 675:             re_usr_pass[count1] = '0';
  7338   000634  5058               	movf	_count1^0,w,c
  7339   000636  0F99               	addlw	low _re_usr_pass
  7340   000638  6ED9               	movwf	fsr2l,c
  7341   00063A  6ADA               	clrf	fsr2h,c
  7342   00063C  0E30               	movlw	48
  7343   00063E  6EDF               	movwf	indf2,c
  7344   000640                     
  7345                           ;blackbox.c: 676:             clcd_putch('*', (0xC0 + (count1)));
  7346   000640  5058               	movf	_count1^0,w,c
  7347   000642  0FC0               	addlw	192
  7348   000644  6E0D               	movwf	clcd_putch@addr^0,c
  7349   000646  0E2A               	movlw	42
  7350   000648  ECE6  F013         	call	_clcd_putch
  7351   00064C                     l5327:
  7352                           
  7353                           ;blackbox.c: 677:             count1++;
  7354   00064C  2A58               	incf	_count1^0,f,c
  7355                           
  7356                           ;blackbox.c: 678:         }
  7357   00064E  EF40  F003         	goto	l5337
  7358   000652                     l5329:
  7359   000652  0E0C               	movlw	12
  7360   000654  185C               	xorwf	_key^0,w,c
  7361   000656  A4D8               	btfss	status,2,c
  7362   000658  EF30  F003         	goto	u4111
  7363   00065C  EF32  F003         	goto	u4110
  7364   000660                     u4111:
  7365   000660  EF40  F003         	goto	l5337
  7366   000664                     u4110:
  7367   000664                     
  7368                           ;blackbox.c: 680:         {;blackbox.c: 681:             re_usr_pass[count1] = '1';
  7369   000664  5058               	movf	_count1^0,w,c
  7370   000666  0F99               	addlw	low _re_usr_pass
  7371   000668  6ED9               	movwf	fsr2l,c
  7372   00066A  6ADA               	clrf	fsr2h,c
  7373   00066C  0E31               	movlw	49
  7374   00066E  6EDF               	movwf	indf2,c
  7375   000670                     
  7376                           ;blackbox.c: 682:             clcd_putch('*', (0xC0 + (count1)));
  7377   000670  5058               	movf	_count1^0,w,c
  7378   000672  0FC0               	addlw	192
  7379   000674  6E0D               	movwf	clcd_putch@addr^0,c
  7380   000676  0E2A               	movlw	42
  7381   000678  ECE6  F013         	call	_clcd_putch
  7382   00067C  EF26  F003         	goto	l5327
  7383   000680                     l5337:
  7384                           
  7385                           ;blackbox.c: 685:         if (delay1++ == 5)
  7386   000680  0E01               	movlw	1
  7387   000682  263E               	addwf	_delay1^0,f,c
  7388   000684  0E00               	movlw	0
  7389   000686  223F               	addwfc	(_delay1+1)^0,f,c
  7390   000688  2240               	addwfc	(_delay1+2)^0,f,c
  7391   00068A  2241               	addwfc	(_delay1+3)^0,f,c
  7392   00068C  0E06               	movlw	6
  7393   00068E  183E               	xorwf	_delay1^0,w,c
  7394   000690  103F               	iorwf	(_delay1+1)^0,w,c
  7395   000692  1040               	iorwf	(_delay1+2)^0,w,c
  7396   000694  1041               	iorwf	(_delay1+3)^0,w,c
  7397   000696  A4D8               	btfss	status,2,c
  7398   000698  EF50  F003         	goto	u4121
  7399   00069C  EF52  F003         	goto	u4120
  7400   0006A0                     u4121:
  7401   0006A0  EF5A  F003         	goto	l5341
  7402   0006A4                     u4120:
  7403   0006A4                     
  7404                           ;blackbox.c: 686:         {;blackbox.c: 687:             clcd_putch('_', (0xC0 + (count1
      +                          )));
  7405   0006A4  5058               	movf	_count1^0,w,c
  7406   0006A6  0FC0               	addlw	192
  7407   0006A8  6E0D               	movwf	clcd_putch@addr^0,c
  7408   0006AA  0E5F               	movlw	95
  7409   0006AC  ECE6  F013         	call	_clcd_putch
  7410                           
  7411                           ;blackbox.c: 688:         }
  7412   0006B0  EF7E  F003         	goto	l5349
  7413   0006B4                     l5341:
  7414   0006B4  0E0A               	movlw	10
  7415   0006B6  183E               	xorwf	_delay1^0,w,c
  7416   0006B8  103F               	iorwf	(_delay1+1)^0,w,c
  7417   0006BA  1040               	iorwf	(_delay1+2)^0,w,c
  7418   0006BC  1041               	iorwf	(_delay1+3)^0,w,c
  7419   0006BE  A4D8               	btfss	status,2,c
  7420   0006C0  EF64  F003         	goto	u4131
  7421   0006C4  EF66  F003         	goto	u4130
  7422   0006C8                     u4131:
  7423   0006C8  EF76  F003         	goto	l5347
  7424   0006CC                     u4130:
  7425   0006CC                     
  7426                           ;blackbox.c: 690:         {;blackbox.c: 691:             delay1 = 0;
  7427   0006CC  0E00               	movlw	0
  7428   0006CE  6E3E               	movwf	_delay1^0,c
  7429   0006D0  0E00               	movlw	0
  7430   0006D2  6E3F               	movwf	(_delay1+1)^0,c
  7431   0006D4  0E00               	movlw	0
  7432   0006D6  6E40               	movwf	(_delay1+2)^0,c
  7433   0006D8  0E00               	movlw	0
  7434   0006DA  6E41               	movwf	(_delay1+3)^0,c
  7435   0006DC                     
  7436                           ;blackbox.c: 692:             clcd_putch(' ', (0xC0 + (count1)));
  7437   0006DC  5058               	movf	_count1^0,w,c
  7438   0006DE  0FC0               	addlw	192
  7439   0006E0  6E0D               	movwf	clcd_putch@addr^0,c
  7440   0006E2  0E20               	movlw	32
  7441   0006E4  ECE6  F013         	call	_clcd_putch
  7442                           
  7443                           ;blackbox.c: 693:         }
  7444   0006E8  EF7E  F003         	goto	l5349
  7445   0006EC                     l5347:
  7446                           
  7447                           ;blackbox.c: 695:         {;blackbox.c: 696:             delay1=0;
  7448   0006EC  0E00               	movlw	0
  7449   0006EE  6E3E               	movwf	_delay1^0,c
  7450   0006F0  0E00               	movlw	0
  7451   0006F2  6E3F               	movwf	(_delay1+1)^0,c
  7452   0006F4  0E00               	movlw	0
  7453   0006F6  6E40               	movwf	(_delay1+2)^0,c
  7454   0006F8  0E00               	movlw	0
  7455   0006FA  6E41               	movwf	(_delay1+3)^0,c
  7456   0006FC                     l5349:
  7457                           
  7458                           ;blackbox.c: 700:     if (count1==4 && pass_flag==1)
  7459   0006FC  0E04               	movlw	4
  7460   0006FE  1858               	xorwf	_count1^0,w,c
  7461   000700  A4D8               	btfss	status,2,c
  7462   000702  EF85  F003         	goto	u4141
  7463   000706  EF87  F003         	goto	u4140
  7464   00070A                     u4141:
  7465   00070A  EF33  F004         	goto	l1002
  7466   00070E                     u4140:
  7467   00070E  0100               	movlb	0	; () banked
  7468   000710  0586               	decf	_pass_flag& (0+255),w,b
  7469   000712  1187               	iorwf	(_pass_flag+1)& (0+255),w,b
  7470   000714  A4D8               	btfss	status,2,c
  7471   000716  EF8F  F003         	goto	u4151
  7472   00071A  EF91  F003         	goto	u4150
  7473   00071E                     u4151:
  7474   00071E  EF33  F004         	goto	l1002
  7475   000722                     u4150:
  7476   000722                     
  7477                           ; BSR set to: 0
  7478                           ;blackbox.c: 701:     {;blackbox.c: 702:         re_usr_pass[count1] = '\0';
  7479   000722  5058               	movf	_count1^0,w,c
  7480   000724  0F99               	addlw	low _re_usr_pass
  7481   000726  6ED9               	movwf	fsr2l,c
  7482   000728  6ADA               	clrf	fsr2h,c
  7483   00072A  6ADF               	clrf	indf2,c
  7484   00072C                     
  7485                           ; BSR set to: 0
  7486                           ;blackbox.c: 703:         if (strcmp(re_usr_pass, usr_pass) == 0)
  7487   00072C  0E99               	movlw	low _re_usr_pass
  7488   00072E  6E01               	movwf	strcmp@l^0,c
  7489   000730  0E9E               	movlw	low _usr_pass
  7490   000732  6E02               	movwf	strcmp@r^0,c
  7491   000734  EC75  F012         	call	_strcmp	;wreg free
  7492   000738  5001               	movf	?_strcmp^0,w,c
  7493   00073A  1002               	iorwf	(?_strcmp+1)^0,w,c
  7494   00073C  A4D8               	btfss	status,2,c
  7495   00073E  EFA3  F003         	goto	u4161
  7496   000742  EFA5  F003         	goto	u4160
  7497   000746                     u4161:
  7498   000746  EFFD  F003         	goto	l5389
  7499   00074A                     u4160:
  7500   00074A                     
  7501                           ;blackbox.c: 704:         {;blackbox.c: 705:             unsigned char address=200;
  7502   00074A  0EC8               	movlw	200
  7503   00074C  6E13               	movwf	change_pass@address^0,c
  7504                           
  7505                           ;blackbox.c: 706:             for(int i=0;i<4;i++)
  7506   00074E  0E00               	movlw	0
  7507   000750  6E19               	movwf	(change_pass@i+1)^0,c
  7508   000752  0E00               	movlw	0
  7509   000754  6E18               	movwf	change_pass@i^0,c
  7510   000756                     l5363:
  7511                           
  7512                           ;blackbox.c: 707:             {;blackbox.c: 708:                 write_24c02(address++,u
      +                          sr_pass[i]);
  7513   000756  5018               	movf	change_pass@i^0,w,c
  7514   000758  0F9E               	addlw	low _usr_pass
  7515   00075A  6ED9               	movwf	fsr2l,c
  7516   00075C  6ADA               	clrf	fsr2h,c
  7517   00075E  50DF               	movf	indf2,w,c
  7518   000760  6E0D               	movwf	write_24c02@data^0,c
  7519   000762  5013               	movf	change_pass@address^0,w,c
  7520   000764  ECF5  F012         	call	_write_24c02
  7521   000768  2A13               	incf	change_pass@address^0,f,c
  7522   00076A                     
  7523                           ;blackbox.c: 709:             }
  7524   00076A  4A18               	infsnz	change_pass@i^0,f,c
  7525   00076C  2A19               	incf	(change_pass@i+1)^0,f,c
  7526   00076E  BE19               	btfsc	(change_pass@i+1)^0,7,c
  7527   000770  EFC3  F003         	goto	u4171
  7528   000774  5019               	movf	(change_pass@i+1)^0,w,c
  7529   000776  E109               	bnz	u4170
  7530   000778  0E04               	movlw	4
  7531   00077A  5C18               	subwf	change_pass@i^0,w,c
  7532   00077C  A0D8               	btfss	status,0,c
  7533   00077E  EFC3  F003         	goto	u4171
  7534   000782  EFC5  F003         	goto	u4170
  7535   000786                     u4171:
  7536   000786  EFAB  F003         	goto	l5363
  7537   00078A                     u4170:
  7538   00078A                     
  7539                           ;blackbox.c: 710:             clcd_write(0x01, 0);
  7540   00078A  0E00               	movlw	0
  7541   00078C  6E01               	movwf	clcd_write@control_bit^0,c
  7542   00078E  0E01               	movlw	1
  7543   000790  EC63  F013         	call	_clcd_write
  7544   000794                     
  7545                           ;blackbox.c: 711:             for (unsigned int i = 0; i < 4000; i++)
  7546   000794  0E00               	movlw	0
  7547   000796  6E15               	movwf	(change_pass@i_709+1)^0,c
  7548   000798  0E00               	movlw	0
  7549   00079A  6E14               	movwf	change_pass@i_709^0,c
  7550   00079C                     l5379:
  7551                           
  7552                           ;blackbox.c: 712:             {;blackbox.c: 713:                 clcd_print("Password ch
      +                          ange", (0x80 + (0)));
  7553   00079C  0E15               	movlw	low STR_24
  7554   00079E  6E03               	movwf	clcd_print@data^0,c
  7555   0007A0  0E2F               	movlw	high STR_24
  7556   0007A2  6E04               	movwf	(clcd_print@data+1)^0,c
  7557   0007A4  0E80               	movlw	128
  7558   0007A6  6E05               	movwf	clcd_print@addr^0,c
  7559   0007A8  ECAE  F011         	call	_clcd_print	;wreg free
  7560                           
  7561                           ;blackbox.c: 714:                 clcd_print("SUCCESSFULL", (0xC0 + (0)));
  7562   0007AC  0EB1               	movlw	low STR_25
  7563   0007AE  6E03               	movwf	clcd_print@data^0,c
  7564   0007B0  0E2F               	movlw	high STR_25
  7565   0007B2  6E04               	movwf	(clcd_print@data+1)^0,c
  7566   0007B4  0EC0               	movlw	192
  7567   0007B6  6E05               	movwf	clcd_print@addr^0,c
  7568   0007B8  ECAE  F011         	call	_clcd_print	;wreg free
  7569   0007BC                     
  7570                           ;blackbox.c: 715:             }
  7571   0007BC  4A14               	infsnz	change_pass@i_709^0,f,c
  7572   0007BE  2A15               	incf	(change_pass@i_709+1)^0,f,c
  7573   0007C0  0EA0               	movlw	160
  7574   0007C2  5C14               	subwf	change_pass@i_709^0,w,c
  7575   0007C4  0E0F               	movlw	15
  7576   0007C6  5815               	subwfb	(change_pass@i_709+1)^0,w,c
  7577   0007C8  A0D8               	btfss	status,0,c
  7578   0007CA  EFE9  F003         	goto	u4181
  7579   0007CE  EFEB  F003         	goto	u4180
  7580   0007D2                     u4181:
  7581   0007D2  EFCE  F003         	goto	l5379
  7582   0007D6                     u4180:
  7583   0007D6                     
  7584                           ;blackbox.c: 716:             main_flag = 1;
  7585   0007D6  0E00               	movlw	0
  7586   0007D8  6E4D               	movwf	(_main_flag+1)^0,c
  7587   0007DA  0E01               	movlw	1
  7588   0007DC  6E4C               	movwf	_main_flag^0,c
  7589                           
  7590                           ;blackbox.c: 717:             pass_flag=0;
  7591   0007DE  0E00               	movlw	0
  7592   0007E0  0100               	movlb	0	; () banked
  7593   0007E2  6F87               	movwf	(_pass_flag+1)& (0+255),b
  7594   0007E4  0E00               	movlw	0
  7595   0007E6  6F86               	movwf	_pass_flag& (0+255),b
  7596                           
  7597                           ;blackbox.c: 718:             count1=0;
  7598   0007E8  0E00               	movlw	0
  7599   0007EA  6E58               	movwf	_count1^0,c
  7600   0007EC                     
  7601                           ; BSR set to: 0
  7602                           ;blackbox.c: 719:             clcd_write(0x01, 0);
  7603   0007EC  0E00               	movlw	0
  7604   0007EE  6E01               	movwf	clcd_write@control_bit^0,c
  7605   0007F0  0E01               	movlw	1
  7606   0007F2  EC63  F013         	call	_clcd_write
  7607                           
  7608                           ;blackbox.c: 720:         }
  7609   0007F6  EF33  F004         	goto	l1002
  7610   0007FA                     l5389:
  7611                           
  7612                           ;blackbox.c: 722:         {;blackbox.c: 723:             clcd_write(0x01, 0);
  7613   0007FA  0E00               	movlw	0
  7614   0007FC  6E01               	movwf	clcd_write@control_bit^0,c
  7615   0007FE  0E01               	movlw	1
  7616   000800  EC63  F013         	call	_clcd_write
  7617   000804                     
  7618                           ;blackbox.c: 724:             for (unsigned int i = 0; i < 4000; i++)
  7619   000804  0E00               	movlw	0
  7620   000806  6E17               	movwf	(change_pass@i_712+1)^0,c
  7621   000808  0E00               	movlw	0
  7622   00080A  6E16               	movwf	change_pass@i_712^0,c
  7623   00080C                     l5397:
  7624                           
  7625                           ;blackbox.c: 725:             {;blackbox.c: 726:                 clcd_print("Incorrect p
      +                          ass", (0x80 + (0)));
  7626   00080C  0E61               	movlw	low STR_26
  7627   00080E  6E03               	movwf	clcd_print@data^0,c
  7628   000810  0E2F               	movlw	high STR_26
  7629   000812  6E04               	movwf	(clcd_print@data+1)^0,c
  7630   000814  0E80               	movlw	128
  7631   000816  6E05               	movwf	clcd_print@addr^0,c
  7632   000818  ECAE  F011         	call	_clcd_print	;wreg free
  7633                           
  7634                           ;blackbox.c: 727:                 clcd_print("FAILED", (0xC0 + (0)));
  7635   00081C  0EED               	movlw	low STR_27
  7636   00081E  6E03               	movwf	clcd_print@data^0,c
  7637   000820  0E2F               	movlw	high STR_27
  7638   000822  6E04               	movwf	(clcd_print@data+1)^0,c
  7639   000824  0EC0               	movlw	192
  7640   000826  6E05               	movwf	clcd_print@addr^0,c
  7641   000828  ECAE  F011         	call	_clcd_print	;wreg free
  7642   00082C                     
  7643                           ;blackbox.c: 729:             }
  7644   00082C  4A16               	infsnz	change_pass@i_712^0,f,c
  7645   00082E  2A17               	incf	(change_pass@i_712+1)^0,f,c
  7646   000830  0EA0               	movlw	160
  7647   000832  5C16               	subwf	change_pass@i_712^0,w,c
  7648   000834  0E0F               	movlw	15
  7649   000836  5817               	subwfb	(change_pass@i_712+1)^0,w,c
  7650   000838  A0D8               	btfss	status,0,c
  7651   00083A  EF21  F004         	goto	u4191
  7652   00083E  EF23  F004         	goto	u4190
  7653   000842                     u4191:
  7654   000842  EF06  F004         	goto	l5397
  7655   000846                     u4190:
  7656   000846                     
  7657                           ;blackbox.c: 730:             pass_flag=0;
  7658   000846  0E00               	movlw	0
  7659   000848  0100               	movlb	0	; () banked
  7660   00084A  6F87               	movwf	(_pass_flag+1)& (0+255),b
  7661   00084C  0E00               	movlw	0
  7662   00084E  6F86               	movwf	_pass_flag& (0+255),b
  7663                           
  7664                           ;blackbox.c: 731:             main_flag = 1;
  7665   000850  0E00               	movlw	0
  7666   000852  6E4D               	movwf	(_main_flag+1)^0,c
  7667   000854  0E01               	movlw	1
  7668   000856  6E4C               	movwf	_main_flag^0,c
  7669                           
  7670                           ;blackbox.c: 732:             count1=0;
  7671   000858  0E00               	movlw	0
  7672   00085A  6E58               	movwf	_count1^0,c
  7673   00085C                     
  7674                           ; BSR set to: 0
  7675                           ;blackbox.c: 733:             clcd_write(0x01, 0);
  7676   00085C  0E00               	movlw	0
  7677   00085E  6E01               	movwf	clcd_write@control_bit^0,c
  7678   000860  0E01               	movlw	1
  7679   000862  EC63  F013         	call	_clcd_write
  7680   000866                     l1002:
  7681   000866  0012               	return		;funcret
  7682   000868                     __end_of_change_pass:
  7683                           	callstack 0
  7684                           
  7685 ;; *************** function _write_24c02 *****************
  7686 ;; Defined at:
  7687 ;;		line 2 in file "blackbox.c"
  7688 ;; Parameters:    Size  Location     Type
  7689 ;;  address         1    wreg     unsigned char 
  7690 ;;  data            1   12[COMRAM] unsigned char 
  7691 ;; Auto vars:     Size  Location     Type
  7692 ;;  address         1   13[COMRAM] unsigned char 
  7693 ;;  i               4   14[COMRAM] unsigned long 
  7694 ;; Return value:  Size  Location     Type
  7695 ;;                  1    wreg      void 
  7696 ;; Registers used:
  7697 ;;		wreg, status,2, status,0, cstack
  7698 ;; Tracked objects:
  7699 ;;		On entry : 0/0
  7700 ;;		On exit  : 0/0
  7701 ;;		Unchanged: 0/0
  7702 ;; Data sizes:     COMRAM   BANK0   BANK1   BANK2   BANK3   BANK4   BANK5
  7703 ;;      Params:         1       0       0       0       0       0       0
  7704 ;;      Locals:         5       0       0       0       0       0       0
  7705 ;;      Temps:          0       0       0       0       0       0       0
  7706 ;;      Totals:         6       0       0       0       0       0       0
  7707 ;;Total ram usage:        6 bytes
  7708 ;; Hardware stack levels used: 1
  7709 ;; Hardware stack levels required when called: 3
  7710 ;; This function calls:
  7711 ;;		_i2c_start
  7712 ;;		_i2c_stop
  7713 ;;		_i2c_write
  7714 ;; This function is called by:
  7715 ;;		_event_capture
  7716 ;;		_change_pass
  7717 ;; This function uses a non-reentrant model
  7718 ;;
  7719                           
  7720                           	psect	text34
  7721   0025EA                     __ptext34:
  7722                           	callstack 0
  7723   0025EA                     _write_24c02:
  7724                           	callstack 25
  7725                           
  7726                           ;incstack = 0
  7727                           ;write_24c02@address stored from wreg
  7728   0025EA  6E0E               	movwf	write_24c02@address^0,c
  7729   0025EC                     
  7730                           ;blackbox.c: 2: void write_24c02(unsigned char address, unsigned char data);blackbox.c: 
      +                          3: {;blackbox.c: 4:  i2c_start();
  7731   0025EC  EC3B  F014         	call	_i2c_start	;wreg free
  7732   0025F0                     
  7733                           ;blackbox.c: 5:  i2c_write(0xA0);
  7734   0025F0  0EA0               	movlw	160
  7735   0025F2  EC29  F014         	call	_i2c_write
  7736   0025F6                     
  7737                           ;blackbox.c: 6:  i2c_write(address);
  7738   0025F6  500E               	movf	write_24c02@address^0,w,c
  7739   0025F8  EC29  F014         	call	_i2c_write
  7740   0025FC                     
  7741                           ;blackbox.c: 7:  i2c_write(data);
  7742   0025FC  500D               	movf	write_24c02@data^0,w,c
  7743   0025FE  EC29  F014         	call	_i2c_write
  7744   002602                     
  7745                           ;blackbox.c: 8:  i2c_stop();
  7746   002602  EC37  F014         	call	_i2c_stop	;wreg free
  7747   002606                     
  7748                           ;blackbox.c: 9:     for(unsigned long int i=5000;i>0;i--);
  7749   002606  0E88               	movlw	136
  7750   002608  6E0F               	movwf	write_24c02@i^0,c
  7751   00260A  0E13               	movlw	19
  7752   00260C  6E10               	movwf	(write_24c02@i+1)^0,c
  7753   00260E  0E00               	movlw	0
  7754   002610  6E11               	movwf	(write_24c02@i+2)^0,c
  7755   002612  0E00               	movlw	0
  7756   002614  6E12               	movwf	(write_24c02@i+3)^0,c
  7757   002616                     l3991:
  7758   002616  060F               	decf	write_24c02@i^0,f,c
  7759   002618  0E00               	movlw	0
  7760   00261A  5A10               	subwfb	(write_24c02@i+1)^0,f,c
  7761   00261C  5A11               	subwfb	(write_24c02@i+2)^0,f,c
  7762   00261E  5A12               	subwfb	(write_24c02@i+3)^0,f,c
  7763   002620  500F               	movf	write_24c02@i^0,w,c
  7764   002622  1010               	iorwf	(write_24c02@i+1)^0,w,c
  7765   002624  1011               	iorwf	(write_24c02@i+2)^0,w,c
  7766   002626  1012               	iorwf	(write_24c02@i+3)^0,w,c
  7767   002628  A4D8               	btfss	status,2,c
  7768   00262A  EF19  F013         	goto	u2271
  7769   00262E  EF1B  F013         	goto	u2270
  7770   002632                     u2271:
  7771   002632  EF0B  F013         	goto	l3991
  7772   002636                     u2270:
  7773   002636  0012               	return		;funcret
  7774   002638                     __end_of_write_24c02:
  7775                           	callstack 0
  7776                           
  7777 ;; *************** function _i2c_write *****************
  7778 ;; Defined at:
  7779 ;;		line 58 in file "i2c.c"
  7780 ;; Parameters:    Size  Location     Type
  7781 ;;  data            1    wreg     unsigned char 
  7782 ;; Auto vars:     Size  Location     Type
  7783 ;;  data            1    0[COMRAM] unsigned char 
  7784 ;; Return value:  Size  Location     Type
  7785 ;;                  1    wreg      void 
  7786 ;; Registers used:
  7787 ;;		wreg, cstack
  7788 ;; Tracked objects:
  7789 ;;		On entry : 0/0
  7790 ;;		On exit  : 0/0
  7791 ;;		Unchanged: 0/0
  7792 ;; Data sizes:     COMRAM   BANK0   BANK1   BANK2   BANK3   BANK4   BANK5
  7793 ;;      Params:         0       0       0       0       0       0       0
  7794 ;;      Locals:         1       0       0       0       0       0       0
  7795 ;;      Temps:          0       0       0       0       0       0       0
  7796 ;;      Totals:         1       0       0       0       0       0       0
  7797 ;;Total ram usage:        1 bytes
  7798 ;; Hardware stack levels used: 1
  7799 ;; Hardware stack levels required when called: 2
  7800 ;; This function calls:
  7801 ;;		_i2c_idle
  7802 ;; This function is called by:
  7803 ;;		_write_24c02
  7804 ;;		_read_24c02
  7805 ;;		_write_ds1307
  7806 ;;		_read_ds1307
  7807 ;; This function uses a non-reentrant model
  7808 ;;
  7809                           
  7810                           	psect	text35
  7811   002852                     __ptext35:
  7812                           	callstack 0
  7813   002852                     _i2c_write:
  7814                           	callstack 26
  7815                           
  7816                           ;incstack = 0
  7817                           ;i2c_write@data stored from wreg
  7818   002852  6E01               	movwf	i2c_write@data^0,c
  7819   002854                     
  7820                           ;i2c.c: 58: void i2c_write(unsigned char data);i2c.c: 59: {;i2c.c: 61:  SSPBUF = data;
  7821   002854  C001  FFC9         	movff	i2c_write@data,4041	;volatile
  7822   002858                     
  7823                           ;i2c.c: 62:  i2c_idle();
  7824   002858  EC1A  F014         	call	_i2c_idle	;wreg free
  7825   00285C  0012               	return		;funcret
  7826   00285E                     __end_of_i2c_write:
  7827                           	callstack 0
  7828                           
  7829 ;; *************** function _i2c_stop *****************
  7830 ;; Defined at:
  7831 ;;		line 44 in file "i2c.c"
  7832 ;; Parameters:    Size  Location     Type
  7833 ;;		None
  7834 ;; Auto vars:     Size  Location     Type
  7835 ;;		None
  7836 ;; Return value:  Size  Location     Type
  7837 ;;                  1    wreg      void 
  7838 ;; Registers used:
  7839 ;;		cstack
  7840 ;; Tracked objects:
  7841 ;;		On entry : 0/0
  7842 ;;		On exit  : 0/0
  7843 ;;		Unchanged: 0/0
  7844 ;; Data sizes:     COMRAM   BANK0   BANK1   BANK2   BANK3   BANK4   BANK5
  7845 ;;      Params:         0       0       0       0       0       0       0
  7846 ;;      Locals:         0       0       0       0       0       0       0
  7847 ;;      Temps:          0       0       0       0       0       0       0
  7848 ;;      Totals:         0       0       0       0       0       0       0
  7849 ;;Total ram usage:        0 bytes
  7850 ;; Hardware stack levels used: 1
  7851 ;; Hardware stack levels required when called: 2
  7852 ;; This function calls:
  7853 ;;		_i2c_idle
  7854 ;; This function is called by:
  7855 ;;		_write_24c02
  7856 ;;		_read_24c02
  7857 ;;		_write_ds1307
  7858 ;;		_read_ds1307
  7859 ;; This function uses a non-reentrant model
  7860 ;;
  7861                           
  7862                           	psect	text36
  7863   00286E                     __ptext36:
  7864                           	callstack 0
  7865   00286E                     _i2c_stop:
  7866                           	callstack 26
  7867   00286E                     
  7868                           ;i2c.c: 47:  PEN = 1;
  7869   00286E  84C5               	bsf	4037,2,c	;volatile
  7870   002870                     
  7871                           ;i2c.c: 48:  i2c_idle();
  7872   002870  EC1A  F014         	call	_i2c_idle	;wreg free
  7873   002874  0012               	return		;funcret
  7874   002876                     __end_of_i2c_stop:
  7875                           	callstack 0
  7876                           
  7877 ;; *************** function _i2c_start *****************
  7878 ;; Defined at:
  7879 ;;		line 37 in file "i2c.c"
  7880 ;; Parameters:    Size  Location     Type
  7881 ;;		None
  7882 ;; Auto vars:     Size  Location     Type
  7883 ;;		None
  7884 ;; Return value:  Size  Location     Type
  7885 ;;                  1    wreg      void 
  7886 ;; Registers used:
  7887 ;;		cstack
  7888 ;; Tracked objects:
  7889 ;;		On entry : 0/0
  7890 ;;		On exit  : 0/0
  7891 ;;		Unchanged: 0/0
  7892 ;; Data sizes:     COMRAM   BANK0   BANK1   BANK2   BANK3   BANK4   BANK5
  7893 ;;      Params:         0       0       0       0       0       0       0
  7894 ;;      Locals:         0       0       0       0       0       0       0
  7895 ;;      Temps:          0       0       0       0       0       0       0
  7896 ;;      Totals:         0       0       0       0       0       0       0
  7897 ;;Total ram usage:        0 bytes
  7898 ;; Hardware stack levels used: 1
  7899 ;; Hardware stack levels required when called: 2
  7900 ;; This function calls:
  7901 ;;		_i2c_idle
  7902 ;; This function is called by:
  7903 ;;		_write_24c02
  7904 ;;		_read_24c02
  7905 ;;		_write_ds1307
  7906 ;;		_read_ds1307
  7907 ;; This function uses a non-reentrant model
  7908 ;;
  7909                           
  7910                           	psect	text37
  7911   002876                     __ptext37:
  7912                           	callstack 0
  7913   002876                     _i2c_start:
  7914                           	callstack 26
  7915   002876                     
  7916                           ;i2c.c: 40:  SEN = 1;
  7917   002876  80C5               	bsf	4037,0,c	;volatile
  7918   002878                     
  7919                           ;i2c.c: 41:  i2c_idle();
  7920   002878  EC1A  F014         	call	_i2c_idle	;wreg free
  7921   00287C  0012               	return		;funcret
  7922   00287E                     __end_of_i2c_start:
  7923                           	callstack 0
  7924                           
  7925 ;; *************** function _i2c_idle *****************
  7926 ;; Defined at:
  7927 ;;		line 22 in file "i2c.c"
  7928 ;; Parameters:    Size  Location     Type
  7929 ;;		None
  7930 ;; Auto vars:     Size  Location     Type
  7931 ;;		None
  7932 ;; Return value:  Size  Location     Type
  7933 ;;                  1    wreg      void 
  7934 ;; Registers used:
  7935 ;;		None
  7936 ;; Tracked objects:
  7937 ;;		On entry : 0/0
  7938 ;;		On exit  : 0/0
  7939 ;;		Unchanged: 0/0
  7940 ;; Data sizes:     COMRAM   BANK0   BANK1   BANK2   BANK3   BANK4   BANK5
  7941 ;;      Params:         0       0       0       0       0       0       0
  7942 ;;      Locals:         0       0       0       0       0       0       0
  7943 ;;      Temps:          0       0       0       0       0       0       0
  7944 ;;      Totals:         0       0       0       0       0       0       0
  7945 ;;Total ram usage:        0 bytes
  7946 ;; Hardware stack levels used: 1
  7947 ;; Hardware stack levels required when called: 1
  7948 ;; This function calls:
  7949 ;;		Nothing
  7950 ;; This function is called by:
  7951 ;;		_i2c_start
  7952 ;;		_i2c_stop
  7953 ;;		_i2c_rep_start
  7954 ;;		_i2c_write
  7955 ;;		_i2c_rx_mode
  7956 ;; This function uses a non-reentrant model
  7957 ;;
  7958                           
  7959                           	psect	text38
  7960   002834                     __ptext38:
  7961                           	callstack 0
  7962   002834                     _i2c_idle:
  7963                           	callstack 26
  7964   002834                     l1338:
  7965   002834  A69E               	btfss	3998,3,c	;volatile
  7966   002836  EF1F  F014         	goto	u2231
  7967   00283A  EF21  F014         	goto	u2230
  7968   00283E                     u2231:
  7969   00283E  EF1A  F014         	goto	l1338
  7970   002842                     u2230:
  7971   002842                     
  7972                           ;i2c.c: 26:  SSPIF = 0;
  7973   002842  969E               	bcf	3998,3,c	;volatile
  7974   002844  0012               	return		;funcret
  7975   002846                     __end_of_i2c_idle:
  7976                           	callstack 0
  7977                           
  7978 ;; *************** function _authorisation *****************
  7979 ;; Defined at:
  7980 ;;		line 131 in file "blackbox.c"
  7981 ;; Parameters:    Size  Location     Type
  7982 ;;		None
  7983 ;; Auto vars:     Size  Location     Type
  7984 ;;  i               2   19[COMRAM] unsigned int 
  7985 ;;  usr_pass        5   14[COMRAM] unsigned char [5]
  7986 ;; Return value:  Size  Location     Type
  7987 ;;                  1    wreg      void 
  7988 ;; Registers used:
  7989 ;;		wreg, fsr0l, fsr0h, fsr1l, fsr1h, fsr2l, fsr2h, status,2, status,0, tblptrl, tblptrh, tblptru, cstack
  7990 ;; Tracked objects:
  7991 ;;		On entry : 0/0
  7992 ;;		On exit  : 0/0
  7993 ;;		Unchanged: 0/0
  7994 ;; Data sizes:     COMRAM   BANK0   BANK1   BANK2   BANK3   BANK4   BANK5
  7995 ;;      Params:         0       0       0       0       0       0       0
  7996 ;;      Locals:         7       0       0       0       0       0       0
  7997 ;;      Temps:          0       0       0       0       0       0       0
  7998 ;;      Totals:         7       0       0       0       0       0       0
  7999 ;;Total ram usage:        7 bytes
  8000 ;; Hardware stack levels used: 1
  8001 ;; Hardware stack levels required when called: 3
  8002 ;; This function calls:
  8003 ;;		___lwdiv
  8004 ;;		___lwmod
  8005 ;;		_clcd_print
  8006 ;;		_clcd_putch
  8007 ;;		_clcd_write
  8008 ;;		_strcmp
  8009 ;; This function is called by:
  8010 ;;		_main
  8011 ;; This function uses a non-reentrant model
  8012 ;;
  8013                           
  8014                           	psect	text39
  8015   000C02                     __ptext39:
  8016                           	callstack 0
  8017   000C02                     _authorisation:
  8018                           	callstack 27
  8019   000C02                     
  8020                           ;blackbox.c: 133:     unsigned char usr_pass[5];;blackbox.c: 135:     if (count < 4)
  8021   000C02  0E04               	movlw	4
  8022   000C04  6059               	cpfslt	_count^0,c
  8023   000C06  EF07  F006         	goto	u3221
  8024   000C0A  EF09  F006         	goto	u3220
  8025   000C0E                     u3221:
  8026   000C0E  EFB8  F006         	goto	l4737
  8027   000C12                     u3220:
  8028   000C12                     
  8029                           ;blackbox.c: 136:     {;blackbox.c: 137:         clcd_print("Enter Password", (0x80 + (0
      +                          )));
  8030   000C12  0E52               	movlw	low STR_2
  8031   000C14  6E03               	movwf	clcd_print@data^0,c
  8032   000C16  0E2F               	movlw	high STR_2
  8033   000C18  6E04               	movwf	(clcd_print@data+1)^0,c
  8034   000C1A  0E80               	movlw	128
  8035   000C1C  6E05               	movwf	clcd_print@addr^0,c
  8036   000C1E  ECAE  F011         	call	_clcd_print	;wreg free
  8037   000C22                     
  8038                           ;blackbox.c: 138:         if(secs==3)
  8039   000C22  0E03               	movlw	3
  8040   000C24  0100               	movlb	0	; () banked
  8041   000C26  1976               	xorwf	_secs& (0+255),w,b
  8042   000C28  1177               	iorwf	(_secs+1)& (0+255),w,b
  8043   000C2A  A4D8               	btfss	status,2,c
  8044   000C2C  EF1A  F006         	goto	u3231
  8045   000C30  EF1C  F006         	goto	u3230
  8046   000C34                     u3231:
  8047   000C34  EF2B  F006         	goto	l4703
  8048   000C38                     u3230:
  8049   000C38                     
  8050                           ; BSR set to: 0
  8051                           ;blackbox.c: 139:         {;blackbox.c: 140:             key_flag=0;
  8052   000C38  0E00               	movlw	0
  8053   000C3A  6F8B               	movwf	(_key_flag+1)& (0+255),b
  8054   000C3C  0E00               	movlw	0
  8055   000C3E  6F8A               	movwf	_key_flag& (0+255),b
  8056                           
  8057                           ;blackbox.c: 141:             count=0;
  8058   000C40  0E00               	movlw	0
  8059   000C42  6E59               	movwf	_count^0,c
  8060                           
  8061                           ;blackbox.c: 142:             flag=3;
  8062   000C44  0E00               	movlw	0
  8063   000C46  6FAB               	movwf	(_flag+1)& (0+255),b
  8064   000C48  0E03               	movlw	3
  8065   000C4A  6FAA               	movwf	_flag& (0+255),b
  8066   000C4C                     
  8067                           ; BSR set to: 0
  8068                           ;blackbox.c: 143:             clcd_write(0x01, 0);
  8069   000C4C  0E00               	movlw	0
  8070   000C4E  6E01               	movwf	clcd_write@control_bit^0,c
  8071   000C50  0E01               	movlw	1
  8072   000C52  EC63  F013         	call	_clcd_write
  8073   000C56                     l4703:
  8074                           
  8075                           ;blackbox.c: 145:         if (key == 11 && delay < 1)
  8076   000C56  0E0B               	movlw	11
  8077   000C58  185C               	xorwf	_key^0,w,c
  8078   000C5A  A4D8               	btfss	status,2,c
  8079   000C5C  EF32  F006         	goto	u3241
  8080   000C60  EF34  F006         	goto	u3240
  8081   000C64                     u3241:
  8082   000C64  EF57  F006         	goto	l4715
  8083   000C68                     u3240:
  8084   000C68  5042               	movf	_delay^0,w,c
  8085   000C6A  1043               	iorwf	(_delay+1)^0,w,c
  8086   000C6C  1044               	iorwf	(_delay+2)^0,w,c
  8087   000C6E  1045               	iorwf	(_delay+3)^0,w,c
  8088   000C70  A4D8               	btfss	status,2,c
  8089   000C72  EF3D  F006         	goto	u3251
  8090   000C76  EF3F  F006         	goto	u3250
  8091   000C7A                     u3251:
  8092   000C7A  EF57  F006         	goto	l4715
  8093   000C7E                     u3250:
  8094   000C7E                     
  8095                           ;blackbox.c: 146:         {;blackbox.c: 147:             secs=0;
  8096   000C7E  0E00               	movlw	0
  8097   000C80  0100               	movlb	0	; () banked
  8098   000C82  6F77               	movwf	(_secs+1)& (0+255),b
  8099   000C84  0E00               	movlw	0
  8100   000C86  6F76               	movwf	_secs& (0+255),b
  8101                           
  8102                           ;blackbox.c: 148:             sec_flag=0;
  8103   000C88  0E00               	movlw	0
  8104   000C8A  6F7F               	movwf	(_sec_flag+1)& (0+255),b
  8105   000C8C  0E00               	movlw	0
  8106   000C8E  6F7E               	movwf	_sec_flag& (0+255),b
  8107   000C90                     
  8108                           ; BSR set to: 0
  8109                           ;blackbox.c: 149:             usr_pass[count] = '0';
  8110   000C90  5059               	movf	_count^0,w,c
  8111   000C92  0F0F               	addlw	low authorisation@usr_pass
  8112   000C94  6ED9               	movwf	fsr2l,c
  8113   000C96  6ADA               	clrf	fsr2h,c
  8114   000C98  0E30               	movlw	48
  8115   000C9A  6EDF               	movwf	indf2,c
  8116   000C9C                     
  8117                           ; BSR set to: 0
  8118                           ;blackbox.c: 150:             clcd_putch('*', (0xC0 + (count)));
  8119   000C9C  5059               	movf	_count^0,w,c
  8120   000C9E  0FC0               	addlw	192
  8121   000CA0  6E0D               	movwf	clcd_putch@addr^0,c
  8122   000CA2  0E2A               	movlw	42
  8123   000CA4  ECE6  F013         	call	_clcd_putch
  8124   000CA8                     l4713:
  8125                           
  8126                           ;blackbox.c: 151:             count++;
  8127   000CA8  2A59               	incf	_count^0,f,c
  8128                           
  8129                           ;blackbox.c: 152:         }
  8130   000CAA  EF82  F006         	goto	l4727
  8131   000CAE                     l4715:
  8132   000CAE  0E0C               	movlw	12
  8133   000CB0  185C               	xorwf	_key^0,w,c
  8134   000CB2  A4D8               	btfss	status,2,c
  8135   000CB4  EF5E  F006         	goto	u3261
  8136   000CB8  EF60  F006         	goto	u3260
  8137   000CBC                     u3261:
  8138   000CBC  EF82  F006         	goto	l4727
  8139   000CC0                     u3260:
  8140   000CC0  5042               	movf	_delay^0,w,c
  8141   000CC2  1043               	iorwf	(_delay+1)^0,w,c
  8142   000CC4  1044               	iorwf	(_delay+2)^0,w,c
  8143   000CC6  1045               	iorwf	(_delay+3)^0,w,c
  8144   000CC8  A4D8               	btfss	status,2,c
  8145   000CCA  EF69  F006         	goto	u3271
  8146   000CCE  EF6B  F006         	goto	u3270
  8147   000CD2                     u3271:
  8148   000CD2  EF82  F006         	goto	l4727
  8149   000CD6                     u3270:
  8150   000CD6                     
  8151                           ;blackbox.c: 154:         {;blackbox.c: 155:             secs=0;
  8152   000CD6  0E00               	movlw	0
  8153   000CD8  0100               	movlb	0	; () banked
  8154   000CDA  6F77               	movwf	(_secs+1)& (0+255),b
  8155   000CDC  0E00               	movlw	0
  8156   000CDE  6F76               	movwf	_secs& (0+255),b
  8157                           
  8158                           ;blackbox.c: 156:             sec_flag=0;
  8159   000CE0  0E00               	movlw	0
  8160   000CE2  6F7F               	movwf	(_sec_flag+1)& (0+255),b
  8161   000CE4  0E00               	movlw	0
  8162   000CE6  6F7E               	movwf	_sec_flag& (0+255),b
  8163   000CE8                     
  8164                           ; BSR set to: 0
  8165                           ;blackbox.c: 157:             usr_pass[count] = '1';
  8166   000CE8  5059               	movf	_count^0,w,c
  8167   000CEA  0F0F               	addlw	low authorisation@usr_pass
  8168   000CEC  6ED9               	movwf	fsr2l,c
  8169   000CEE  6ADA               	clrf	fsr2h,c
  8170   000CF0  0E31               	movlw	49
  8171   000CF2  6EDF               	movwf	indf2,c
  8172   000CF4                     
  8173                           ; BSR set to: 0
  8174                           ;blackbox.c: 158:             clcd_putch('*', (0xC0 + (count)));
  8175   000CF4  5059               	movf	_count^0,w,c
  8176   000CF6  0FC0               	addlw	192
  8177   000CF8  6E0D               	movwf	clcd_putch@addr^0,c
  8178   000CFA  0E2A               	movlw	42
  8179   000CFC  ECE6  F013         	call	_clcd_putch
  8180   000D00  EF54  F006         	goto	l4713
  8181   000D04                     l4727:
  8182                           
  8183                           ;blackbox.c: 161:         if (delay1++ == 5)
  8184   000D04  0E01               	movlw	1
  8185   000D06  263E               	addwf	_delay1^0,f,c
  8186   000D08  0E00               	movlw	0
  8187   000D0A  223F               	addwfc	(_delay1+1)^0,f,c
  8188   000D0C  2240               	addwfc	(_delay1+2)^0,f,c
  8189   000D0E  2241               	addwfc	(_delay1+3)^0,f,c
  8190   000D10  0E06               	movlw	6
  8191   000D12  183E               	xorwf	_delay1^0,w,c
  8192   000D14  103F               	iorwf	(_delay1+1)^0,w,c
  8193   000D16  1040               	iorwf	(_delay1+2)^0,w,c
  8194   000D18  1041               	iorwf	(_delay1+3)^0,w,c
  8195   000D1A  A4D8               	btfss	status,2,c
  8196   000D1C  EF92  F006         	goto	u3281
  8197   000D20  EF94  F006         	goto	u3280
  8198   000D24                     u3281:
  8199   000D24  EF9C  F006         	goto	l4731
  8200   000D28                     u3280:
  8201   000D28                     
  8202                           ;blackbox.c: 162:         {;blackbox.c: 163:             clcd_putch('_', (0xC0 + (count)
      +                          ));
  8203   000D28  5059               	movf	_count^0,w,c
  8204   000D2A  0FC0               	addlw	192
  8205   000D2C  6E0D               	movwf	clcd_putch@addr^0,c
  8206   000D2E  0E5F               	movlw	95
  8207   000D30  ECE6  F013         	call	_clcd_putch
  8208                           
  8209                           ;blackbox.c: 164:         }
  8210   000D34  EF23  F007         	goto	l4779
  8211   000D38                     l4731:
  8212   000D38  0E0A               	movlw	10
  8213   000D3A  183E               	xorwf	_delay1^0,w,c
  8214   000D3C  103F               	iorwf	(_delay1+1)^0,w,c
  8215   000D3E  1040               	iorwf	(_delay1+2)^0,w,c
  8216   000D40  1041               	iorwf	(_delay1+3)^0,w,c
  8217   000D42  A4D8               	btfss	status,2,c
  8218   000D44  EFA6  F006         	goto	u3291
  8219   000D48  EFA8  F006         	goto	u3290
  8220   000D4C                     u3291:
  8221   000D4C  EF23  F007         	goto	l4779
  8222   000D50                     u3290:
  8223   000D50                     
  8224                           ;blackbox.c: 166:         {;blackbox.c: 167:             delay1 = 0;
  8225   000D50  0E00               	movlw	0
  8226   000D52  6E3E               	movwf	_delay1^0,c
  8227   000D54  0E00               	movlw	0
  8228   000D56  6E3F               	movwf	(_delay1+1)^0,c
  8229   000D58  0E00               	movlw	0
  8230   000D5A  6E40               	movwf	(_delay1+2)^0,c
  8231   000D5C  0E00               	movlw	0
  8232   000D5E  6E41               	movwf	(_delay1+3)^0,c
  8233   000D60                     
  8234                           ;blackbox.c: 168:             clcd_putch(' ', (0xC0 + (count)));
  8235   000D60  5059               	movf	_count^0,w,c
  8236   000D62  0FC0               	addlw	192
  8237   000D64  6E0D               	movwf	clcd_putch@addr^0,c
  8238   000D66  0E20               	movlw	32
  8239   000D68  ECE6  F013         	call	_clcd_putch
  8240   000D6C  EF23  F007         	goto	l4779
  8241   000D70                     l4737:
  8242   000D70  0E04               	movlw	4
  8243   000D72  1859               	xorwf	_count^0,w,c
  8244   000D74  A4D8               	btfss	status,2,c
  8245   000D76  EFBF  F006         	goto	u3301
  8246   000D7A  EFC1  F006         	goto	u3300
  8247   000D7E                     u3301:
  8248   000D7E  EF23  F007         	goto	l4779
  8249   000D82                     u3300:
  8250   000D82                     
  8251                           ;blackbox.c: 172:     {;blackbox.c: 173:         usr_pass[count] = '\0';
  8252   000D82  5059               	movf	_count^0,w,c
  8253   000D84  0F0F               	addlw	low authorisation@usr_pass
  8254   000D86  6ED9               	movwf	fsr2l,c
  8255   000D88  6ADA               	clrf	fsr2h,c
  8256   000D8A  6ADF               	clrf	indf2,c
  8257   000D8C                     
  8258                           ;blackbox.c: 175:         if (!(strcmp(org_pass, usr_pass)))
  8259   000D8C  0EA3               	movlw	low _org_pass
  8260   000D8E  6E01               	movwf	strcmp@l^0,c
  8261   000D90  0E0F               	movlw	low authorisation@usr_pass
  8262   000D92  6E02               	movwf	strcmp@r^0,c
  8263   000D94  EC75  F012         	call	_strcmp	;wreg free
  8264   000D98  5001               	movf	?_strcmp^0,w,c
  8265   000D9A  1002               	iorwf	(?_strcmp+1)^0,w,c
  8266   000D9C  A4D8               	btfss	status,2,c
  8267   000D9E  EFD3  F006         	goto	u3311
  8268   000DA2  EFD5  F006         	goto	u3310
  8269   000DA6                     u3311:
  8270   000DA6  EFEB  F006         	goto	l4757
  8271   000DAA                     u3310:
  8272   000DAA                     
  8273                           ;blackbox.c: 176:         {;blackbox.c: 177:             clcd_write(0x01, 0);
  8274   000DAA  0E00               	movlw	0
  8275   000DAC  6E01               	movwf	clcd_write@control_bit^0,c
  8276   000DAE  0E01               	movlw	1
  8277   000DB0  EC63  F013         	call	_clcd_write
  8278   000DB4                     
  8279                           ;blackbox.c: 178:             main_flag = 1;
  8280   000DB4  0E00               	movlw	0
  8281   000DB6  6E4D               	movwf	(_main_flag+1)^0,c
  8282   000DB8  0E01               	movlw	1
  8283   000DBA  6E4C               	movwf	_main_flag^0,c
  8284   000DBC                     
  8285                           ;blackbox.c: 179:             key_flag = 0;
  8286   000DBC  0E00               	movlw	0
  8287   000DBE  0100               	movlb	0	; () banked
  8288   000DC0  6F8B               	movwf	(_key_flag+1)& (0+255),b
  8289   000DC2  0E00               	movlw	0
  8290   000DC4  6F8A               	movwf	_key_flag& (0+255),b
  8291   000DC6                     
  8292                           ; BSR set to: 0
  8293                           ;blackbox.c: 180:             count = 0;
  8294   000DC6  0E00               	movlw	0
  8295   000DC8  6E59               	movwf	_count^0,c
  8296   000DCA                     
  8297                           ; BSR set to: 0
  8298                           ;blackbox.c: 181:             attempt = 3;
  8299   000DCA  0E00               	movlw	0
  8300   000DCC  6FAD               	movwf	(_attempt+1)& (0+255),b
  8301   000DCE  0E03               	movlw	3
  8302   000DD0  6FAC               	movwf	_attempt& (0+255),b
  8303   000DD2  EFA7  F007         	goto	l835
  8304   000DD6                     l4757:
  8305                           
  8306                           ;blackbox.c: 185:         {;blackbox.c: 186:             attempt--;
  8307   000DD6  0100               	movlb	0	; () banked
  8308   000DD8  07AC               	decf	_attempt& (0+255),f,b
  8309   000DDA  A0D8               	btfss	status,0,c
  8310   000DDC  07AD               	decf	(_attempt+1)& (0+255),f,b
  8311   000DDE                     
  8312                           ; BSR set to: 0
  8313                           ;blackbox.c: 187:             clcd_write(0x01, 0);
  8314   000DDE  0E00               	movlw	0
  8315   000DE0  6E01               	movwf	clcd_write@control_bit^0,c
  8316   000DE2  0E01               	movlw	1
  8317   000DE4  EC63  F013         	call	_clcd_write
  8318   000DE8                     
  8319                           ;blackbox.c: 188:             for (unsigned int i = 0; i < 3000; i++)
  8320   000DE8  0E00               	movlw	0
  8321   000DEA  6E15               	movwf	(authorisation@i+1)^0,c
  8322   000DEC  0E00               	movlw	0
  8323   000DEE  6E14               	movwf	authorisation@i^0,c
  8324   000DF0                     l4767:
  8325                           
  8326                           ;blackbox.c: 189:             {;blackbox.c: 190:                 clcd_print("INCORRECT P
      +                          ASS", (0x80 + (0)));
  8327   000DF0  0E34               	movlw	low STR_3
  8328   000DF2  6E03               	movwf	clcd_print@data^0,c
  8329   000DF4  0E2F               	movlw	high STR_3
  8330   000DF6  6E04               	movwf	(clcd_print@data+1)^0,c
  8331   000DF8  0E80               	movlw	128
  8332   000DFA  6E05               	movwf	clcd_print@addr^0,c
  8333   000DFC  ECAE  F011         	call	_clcd_print	;wreg free
  8334                           
  8335                           ;blackbox.c: 191:                 clcd_print("ATTEMPT LEFT - ", (0xC0 + (0)));
  8336   000E00  0EF5               	movlw	low STR_4
  8337   000E02  6E03               	movwf	clcd_print@data^0,c
  8338   000E04  0E2E               	movlw	high STR_4
  8339   000E06  6E04               	movwf	(clcd_print@data+1)^0,c
  8340   000E08  0EC0               	movlw	192
  8341   000E0A  6E05               	movwf	clcd_print@addr^0,c
  8342   000E0C  ECAE  F011         	call	_clcd_print	;wreg free
  8343   000E10                     
  8344                           ;blackbox.c: 192:                 clcd_putch(attempt + '0', (0xC0 + (15)));
  8345   000E10  0ECF               	movlw	207
  8346   000E12  6E0D               	movwf	clcd_putch@addr^0,c
  8347   000E14  0100               	movlb	0	; () banked
  8348   000E16  51AC               	movf	_attempt& (0+255),w,b
  8349   000E18  0F30               	addlw	48
  8350   000E1A  ECE6  F013         	call	_clcd_putch
  8351   000E1E                     
  8352                           ;blackbox.c: 193:             }
  8353   000E1E  4A14               	infsnz	authorisation@i^0,f,c
  8354   000E20  2A15               	incf	(authorisation@i+1)^0,f,c
  8355   000E22  0EB8               	movlw	184
  8356   000E24  5C14               	subwf	authorisation@i^0,w,c
  8357   000E26  0E0B               	movlw	11
  8358   000E28  5815               	subwfb	(authorisation@i+1)^0,w,c
  8359   000E2A  A0D8               	btfss	status,0,c
  8360   000E2C  EF1A  F007         	goto	u3321
  8361   000E30  EF1C  F007         	goto	u3320
  8362   000E34                     u3321:
  8363   000E34  EFF8  F006         	goto	l4767
  8364   000E38                     u3320:
  8365   000E38                     
  8366                           ;blackbox.c: 194:             clcd_write(0x01, 0);
  8367   000E38  0E00               	movlw	0
  8368   000E3A  6E01               	movwf	clcd_write@control_bit^0,c
  8369   000E3C  0E01               	movlw	1
  8370   000E3E  EC63  F013         	call	_clcd_write
  8371   000E42                     
  8372                           ;blackbox.c: 195:             count = 0;
  8373   000E42  0E00               	movlw	0
  8374   000E44  6E59               	movwf	_count^0,c
  8375   000E46                     l4779:
  8376                           
  8377                           ;blackbox.c: 198:     if (attempt == 0)
  8378   000E46  0100               	movlb	0	; () banked
  8379   000E48  51AC               	movf	_attempt& (0+255),w,b
  8380   000E4A  11AD               	iorwf	(_attempt+1)& (0+255),w,b
  8381   000E4C  A4D8               	btfss	status,2,c
  8382   000E4E  EF2B  F007         	goto	u3331
  8383   000E52  EF2D  F007         	goto	u3330
  8384   000E56                     u3331:
  8385   000E56  EF82  F007         	goto	l4793
  8386   000E5A                     u3330:
  8387   000E5A                     
  8388                           ; BSR set to: 0
  8389                           ;blackbox.c: 199:     {;blackbox.c: 200:         static int once = 1;;blackbox.c: 201:  
      +                                 if(once)
  8390   000E5A  51A8               	movf	authorisation@once& (0+255),w,b
  8391   000E5C  11A9               	iorwf	(authorisation@once+1)& (0+255),w,b
  8392   000E5E  B4D8               	btfsc	status,2,c
  8393   000E60  EF34  F007         	goto	u3341
  8394   000E64  EF36  F007         	goto	u3340
  8395   000E68                     u3341:
  8396   000E68  EF3E  F007         	goto	l842
  8397   000E6C                     u3340:
  8398   000E6C                     
  8399                           ; BSR set to: 0
  8400                           ;blackbox.c: 202:         {;blackbox.c: 203:             sec = 120;
  8401   000E6C  0E00               	movlw	0
  8402   000E6E  6E5E               	movwf	(_sec+1)^0,c
  8403   000E70  0E78               	movlw	120
  8404   000E72  6E5D               	movwf	_sec^0,c
  8405                           
  8406                           ;blackbox.c: 204:             once =0;
  8407   000E74  0E00               	movlw	0
  8408   000E76  6FA9               	movwf	(authorisation@once+1)& (0+255),b
  8409   000E78  0E00               	movlw	0
  8410   000E7A  6FA8               	movwf	authorisation@once& (0+255),b
  8411   000E7C                     l842:
  8412                           
  8413                           ; BSR set to: 0
  8414                           ;blackbox.c: 206:         count = 5;
  8415   000E7C  0E05               	movlw	5
  8416   000E7E  6E59               	movwf	_count^0,c
  8417   000E80                     
  8418                           ; BSR set to: 0
  8419                           ;blackbox.c: 207:         clcd_print("WAIT FOR - ", (0x80 + (0)));
  8420   000E80  0E99               	movlw	low STR_5
  8421   000E82  6E03               	movwf	clcd_print@data^0,c
  8422   000E84  0E2F               	movlw	high STR_5
  8423   000E86  6E04               	movwf	(clcd_print@data+1)^0,c
  8424   000E88  0E80               	movlw	128
  8425   000E8A  6E05               	movwf	clcd_print@addr^0,c
  8426   000E8C  ECAE  F011         	call	_clcd_print	;wreg free
  8427   000E90                     
  8428                           ;blackbox.c: 208:         clcd_putch((sec % 10) + '0', (0xC0 + (3)));
  8429   000E90  0EC3               	movlw	195
  8430   000E92  6E0D               	movwf	clcd_putch@addr^0,c
  8431   000E94  C05D  F008         	movff	_sec,___lwmod@dividend
  8432   000E98  C05E  F009         	movff	_sec+1,___lwmod@dividend+1
  8433   000E9C  0E00               	movlw	0
  8434   000E9E  6E0B               	movwf	(___lwmod@divisor+1)^0,c
  8435   000EA0  0E0A               	movlw	10
  8436   000EA2  6E0A               	movwf	___lwmod@divisor^0,c
  8437   000EA4  ECE4  F011         	call	___lwmod	;wreg free
  8438   000EA8  5008               	movf	?___lwmod^0,w,c
  8439   000EAA  0F30               	addlw	48
  8440   000EAC  ECE6  F013         	call	_clcd_putch
  8441   000EB0                     
  8442                           ;blackbox.c: 209:         clcd_putch(((sec / 10) % 10) + '0', (0xC0 + (2)));
  8443   000EB0  0EC2               	movlw	194
  8444   000EB2  6E0D               	movwf	clcd_putch@addr^0,c
  8445   000EB4  0E00               	movlw	0
  8446   000EB6  6E04               	movwf	(___lwdiv@divisor+1)^0,c
  8447   000EB8  0E0A               	movlw	10
  8448   000EBA  6E03               	movwf	___lwdiv@divisor^0,c
  8449   000EBC  C05D  F001         	movff	_sec,___lwdiv@dividend
  8450   000EC0  C05E  F002         	movff	_sec+1,___lwdiv@dividend+1
  8451   000EC4  EC74  F011         	call	___lwdiv	;wreg free
  8452   000EC8  C001  F008         	movff	?___lwdiv,___lwmod@dividend
  8453   000ECC  C002  F009         	movff	?___lwdiv+1,___lwmod@dividend+1
  8454   000ED0  0E00               	movlw	0
  8455   000ED2  6E0B               	movwf	(___lwmod@divisor+1)^0,c
  8456   000ED4  0E0A               	movlw	10
  8457   000ED6  6E0A               	movwf	___lwmod@divisor^0,c
  8458   000ED8  ECE4  F011         	call	___lwmod	;wreg free
  8459   000EDC  5008               	movf	?___lwmod^0,w,c
  8460   000EDE  0F30               	addlw	48
  8461   000EE0  ECE6  F013         	call	_clcd_putch
  8462   000EE4                     
  8463                           ;blackbox.c: 210:         clcd_putch((sec / 100) + '0', (0xC0 + (1)));
  8464   000EE4  0EC1               	movlw	193
  8465   000EE6  6E0D               	movwf	clcd_putch@addr^0,c
  8466   000EE8  C05D  F001         	movff	_sec,___lwdiv@dividend
  8467   000EEC  C05E  F002         	movff	_sec+1,___lwdiv@dividend+1
  8468   000EF0  0E00               	movlw	0
  8469   000EF2  6E04               	movwf	(___lwdiv@divisor+1)^0,c
  8470   000EF4  0E64               	movlw	100
  8471   000EF6  6E03               	movwf	___lwdiv@divisor^0,c
  8472   000EF8  EC74  F011         	call	___lwdiv	;wreg free
  8473   000EFC  5001               	movf	?___lwdiv^0,w,c
  8474   000EFE  0F30               	addlw	48
  8475   000F00  ECE6  F013         	call	_clcd_putch
  8476   000F04                     l4793:
  8477                           
  8478                           ;blackbox.c: 213:     if (sec == 0)
  8479   000F04  505D               	movf	_sec^0,w,c
  8480   000F06  105E               	iorwf	(_sec+1)^0,w,c
  8481   000F08  A4D8               	btfss	status,2,c
  8482   000F0A  EF89  F007         	goto	u3351
  8483   000F0E  EF8B  F007         	goto	u3350
  8484   000F12                     u3351:
  8485   000F12  EFA7  F007         	goto	l835
  8486   000F16                     u3350:
  8487   000F16                     
  8488                           ;blackbox.c: 214:     {;blackbox.c: 215:         flag = 1;
  8489   000F16  0E00               	movlw	0
  8490   000F18  0100               	movlb	0	; () banked
  8491   000F1A  6FAB               	movwf	(_flag+1)& (0+255),b
  8492   000F1C  0E01               	movlw	1
  8493   000F1E  6FAA               	movwf	_flag& (0+255),b
  8494                           
  8495                           ;blackbox.c: 216:         key_flag = 0;
  8496   000F20  0E00               	movlw	0
  8497   000F22  6F8B               	movwf	(_key_flag+1)& (0+255),b
  8498   000F24  0E00               	movlw	0
  8499   000F26  6F8A               	movwf	_key_flag& (0+255),b
  8500                           
  8501                           ;blackbox.c: 217:         attempt = 3;
  8502   000F28  0E00               	movlw	0
  8503   000F2A  6FAD               	movwf	(_attempt+1)& (0+255),b
  8504   000F2C  0E03               	movlw	3
  8505   000F2E  6FAC               	movwf	_attempt& (0+255),b
  8506                           
  8507                           ;blackbox.c: 218:         count=0;
  8508   000F30  0E00               	movlw	0
  8509   000F32  6E59               	movwf	_count^0,c
  8510                           
  8511                           ;blackbox.c: 219:         sec = 120;
  8512   000F34  0E00               	movlw	0
  8513   000F36  6E5E               	movwf	(_sec+1)^0,c
  8514   000F38  0E78               	movlw	120
  8515   000F3A  6E5D               	movwf	_sec^0,c
  8516   000F3C                     
  8517                           ; BSR set to: 0
  8518                           ;blackbox.c: 220:         clcd_write(0x01, 0);
  8519   000F3C  0E00               	movlw	0
  8520   000F3E  6E01               	movwf	clcd_write@control_bit^0,c
  8521   000F40  0E01               	movlw	1
  8522   000F42  EC63  F013         	call	_clcd_write
  8523   000F46                     
  8524                           ;blackbox.c: 221:         main_flag = 0;
  8525   000F46  0E00               	movlw	0
  8526   000F48  6E4D               	movwf	(_main_flag+1)^0,c
  8527   000F4A  0E00               	movlw	0
  8528   000F4C  6E4C               	movwf	_main_flag^0,c
  8529   000F4E                     l835:
  8530   000F4E  0012               	return		;funcret
  8531   000F50                     __end_of_authorisation:
  8532                           	callstack 0
  8533                           
  8534 ;; *************** function _strcmp *****************
  8535 ;; Defined at:
  8536 ;;		line 3 in file "C:\Program Files\Microchip\xc8\v2.46\pic\sources\c99\common\strcmp.c"
  8537 ;; Parameters:    Size  Location     Type
  8538 ;;  l               1    0[COMRAM] PTR const unsigned char 
  8539 ;;		 -> re_usr_pass(5), org_pass(5), 
  8540 ;;  r               1    1[COMRAM] PTR const unsigned char 
  8541 ;;		 -> usr_pass(5), authorisation@usr_pass(5), 
  8542 ;; Auto vars:     Size  Location     Type
  8543 ;;		None
  8544 ;; Return value:  Size  Location     Type
  8545 ;;                  2    0[COMRAM] int 
  8546 ;; Registers used:
  8547 ;;		wreg, fsr1l, fsr1h, fsr2l, fsr2h, status,2, status,0
  8548 ;; Tracked objects:
  8549 ;;		On entry : 0/0
  8550 ;;		On exit  : 0/0
  8551 ;;		Unchanged: 0/0
  8552 ;; Data sizes:     COMRAM   BANK0   BANK1   BANK2   BANK3   BANK4   BANK5
  8553 ;;      Params:         2       0       0       0       0       0       0
  8554 ;;      Locals:         0       0       0       0       0       0       0
  8555 ;;      Temps:          2       0       0       0       0       0       0
  8556 ;;      Totals:         4       0       0       0       0       0       0
  8557 ;;Total ram usage:        4 bytes
  8558 ;; Hardware stack levels used: 1
  8559 ;; Hardware stack levels required when called: 1
  8560 ;; This function calls:
  8561 ;;		Nothing
  8562 ;; This function is called by:
  8563 ;;		_authorisation
  8564 ;;		_change_pass
  8565 ;; This function uses a non-reentrant model
  8566 ;;
  8567                           
  8568                           	psect	text40
  8569   0024EA                     __ptext40:
  8570                           	callstack 0
  8571   0024EA                     _strcmp:
  8572                           	callstack 28
  8573   0024EA  EF79  F012         	goto	l4309
  8574   0024EE                     l4307:
  8575   0024EE  2A01               	incf	strcmp@l^0,f,c
  8576   0024F0  2A02               	incf	strcmp@r^0,f,c
  8577   0024F2                     l4309:
  8578   0024F2  5002               	movf	strcmp@r^0,w,c
  8579   0024F4  6ED9               	movwf	fsr2l,c
  8580   0024F6  6ADA               	clrf	fsr2h,c
  8581   0024F8  5001               	movf	strcmp@l^0,w,c
  8582   0024FA  6EE1               	movwf	fsr1l,c
  8583   0024FC  6AE2               	clrf	fsr1h,c
  8584   0024FE  50DE               	movf	postinc2,w,c
  8585   002500  18E6               	xorwf	postinc1,w,c
  8586   002502  A4D8               	btfss	status,2,c
  8587   002504  EF86  F012         	goto	u2591
  8588   002508  EF88  F012         	goto	u2590
  8589   00250C                     u2591:
  8590   00250C  EF93  F012         	goto	l4313
  8591   002510                     u2590:
  8592   002510  5001               	movf	strcmp@l^0,w,c
  8593   002512  6ED9               	movwf	fsr2l,c
  8594   002514  6ADA               	clrf	fsr2h,c
  8595   002516  50DF               	movf	indf2,w,c
  8596   002518  A4D8               	btfss	status,2,c
  8597   00251A  EF91  F012         	goto	u2601
  8598   00251E  EF93  F012         	goto	u2600
  8599   002522                     u2601:
  8600   002522  EF77  F012         	goto	l4307
  8601   002526                     u2600:
  8602   002526                     l4313:
  8603   002526  5001               	movf	strcmp@l^0,w,c
  8604   002528  6ED9               	movwf	fsr2l,c
  8605   00252A  6ADA               	clrf	fsr2h,c
  8606   00252C  50DF               	movf	indf2,w,c
  8607   00252E  6E03               	movwf	??_strcmp^0,c
  8608   002530  5002               	movf	strcmp@r^0,w,c
  8609   002532  6ED9               	movwf	fsr2l,c
  8610   002534  6ADA               	clrf	fsr2h,c
  8611   002536  50DF               	movf	indf2,w,c
  8612   002538  6E04               	movwf	(??_strcmp+1)^0,c
  8613   00253A  5004               	movf	(??_strcmp+1)^0,w,c
  8614   00253C  5C03               	subwf	??_strcmp^0,w,c
  8615   00253E  6E01               	movwf	?_strcmp^0,c
  8616   002540  6A02               	clrf	(?_strcmp+1)^0,c
  8617   002542  A0D8               	btfss	status,0,c
  8618   002544  0602               	decf	(?_strcmp+1)^0,f,c
  8619   002546  0012               	return		;funcret
  8620   002548                     __end_of_strcmp:
  8621                           	callstack 0
  8622                           
  8623 ;; *************** function _clcd_putch *****************
  8624 ;; Defined at:
  8625 ;;		line 66 in file "clcd.c"
  8626 ;; Parameters:    Size  Location     Type
  8627 ;;  data            1    wreg     const unsigned char 
  8628 ;;  addr            1   12[COMRAM] unsigned char 
  8629 ;; Auto vars:     Size  Location     Type
  8630 ;;  data            1   13[COMRAM] const unsigned char 
  8631 ;; Return value:  Size  Location     Type
  8632 ;;                  1    wreg      void 
  8633 ;; Registers used:
  8634 ;;		wreg, status,2, cstack
  8635 ;; Tracked objects:
  8636 ;;		On entry : 0/0
  8637 ;;		On exit  : 0/0
  8638 ;;		Unchanged: 0/0
  8639 ;; Data sizes:     COMRAM   BANK0   BANK1   BANK2   BANK3   BANK4   BANK5
  8640 ;;      Params:         1       0       0       0       0       0       0
  8641 ;;      Locals:         1       0       0       0       0       0       0
  8642 ;;      Temps:          0       0       0       0       0       0       0
  8643 ;;      Totals:         2       0       0       0       0       0       0
  8644 ;;Total ram usage:        2 bytes
  8645 ;; Hardware stack levels used: 1
  8646 ;; Hardware stack levels required when called: 2
  8647 ;; This function calls:
  8648 ;;		_clcd_write
  8649 ;; This function is called by:
  8650 ;;		_dashboard
  8651 ;;		_authorisation
  8652 ;;		_disp_menu
  8653 ;;		_view_log
  8654 ;;		_set_time
  8655 ;;		_change_pass
  8656 ;; This function uses a non-reentrant model
  8657 ;;
  8658                           
  8659                           	psect	text41
  8660   0027CC                     __ptext41:
  8661                           	callstack 0
  8662   0027CC                     _clcd_putch:
  8663                           	callstack 27
  8664                           
  8665                           ;incstack = 0
  8666                           ;clcd_putch@data stored from wreg
  8667   0027CC  6E0E               	movwf	clcd_putch@data^0,c
  8668   0027CE                     
  8669                           ;clcd.c: 66: void clcd_putch(const unsigned char data, unsigned char addr);clcd.c: 67: {
      +                          ;clcd.c: 68:  clcd_write(addr, 0);
  8670   0027CE  0E00               	movlw	0
  8671   0027D0  6E01               	movwf	clcd_write@control_bit^0,c
  8672   0027D2  500D               	movf	clcd_putch@addr^0,w,c
  8673   0027D4  EC63  F013         	call	_clcd_write
  8674                           
  8675                           ;clcd.c: 69:  clcd_write(data, 1);
  8676   0027D8  0E01               	movlw	1
  8677   0027DA  6E01               	movwf	clcd_write@control_bit^0,c
  8678   0027DC  500E               	movf	clcd_putch@data^0,w,c
  8679   0027DE  EC63  F013         	call	_clcd_write
  8680   0027E2  0012               	return		;funcret
  8681   0027E4                     __end_of_clcd_putch:
  8682                           	callstack 0
  8683                           
  8684 ;; *************** function _clcd_print *****************
  8685 ;; Defined at:
  8686 ;;		line 57 in file "clcd.c"
  8687 ;; Parameters:    Size  Location     Type
  8688 ;;  data            2    2[COMRAM] PTR const unsigned char 
  8689 ;;		 -> STR_27(7), STR_26(15), STR_25(12), STR_24(16), 
  8690 ;;		 -> STR_23(14), STR_22(17), STR_21(15), STR_20(11), 
  8691 ;;		 -> STR_19(9), STR_18(13), STR_17(17), STR_16(14), 
  8692 ;;		 -> STR_14(8), STR_13(12), STR_12(10), STR_10(3), 
  8693 ;;		 -> STR_9(3), STR_8(2), STR_7(5), STR_6(16), 
  8694 ;;		 -> menu(80), STR_5(12), STR_4(16), STR_3(15), 
  8695 ;;		 -> STR_2(15), gear(24), STR_1(15), time(9), 
  8696 ;;  addr            1    4[COMRAM] unsigned char 
  8697 ;; Auto vars:     Size  Location     Type
  8698 ;;		None
  8699 ;; Return value:  Size  Location     Type
  8700 ;;                  1    wreg      void 
  8701 ;; Registers used:
  8702 ;;		wreg, fsr0l, fsr0h, status,2, status,0, tblptrl, tblptrh, tblptru, cstack
  8703 ;; Tracked objects:
  8704 ;;		On entry : 0/0
  8705 ;;		On exit  : 0/0
  8706 ;;		Unchanged: 0/0
  8707 ;; Data sizes:     COMRAM   BANK0   BANK1   BANK2   BANK3   BANK4   BANK5
  8708 ;;      Params:         3       0       0       0       0       0       0
  8709 ;;      Locals:         0       0       0       0       0       0       0
  8710 ;;      Temps:          0       0       0       0       0       0       0
  8711 ;;      Totals:         3       0       0       0       0       0       0
  8712 ;;Total ram usage:        3 bytes
  8713 ;; Hardware stack levels used: 1
  8714 ;; Hardware stack levels required when called: 2
  8715 ;; This function calls:
  8716 ;;		_clcd_write
  8717 ;; This function is called by:
  8718 ;;		_dashboard
  8719 ;;		_authorisation
  8720 ;;		_disp_menu
  8721 ;;		_view_log
  8722 ;;		_download_log
  8723 ;;		_clear_log
  8724 ;;		_set_time
  8725 ;;		_change_pass
  8726 ;; This function uses a non-reentrant model
  8727 ;;
  8728                           
  8729                           	psect	text42
  8730   00235C                     __ptext42:
  8731                           	callstack 0
  8732   00235C                     _clcd_print:
  8733                           	callstack 27
  8734   00235C                     
  8735                           ;clcd.c: 57: void clcd_print(const unsigned char *data, unsigned char addr);clcd.c: 58: 
      +                          {;clcd.c: 59:  clcd_write(addr, 0);
  8736   00235C  0E00               	movlw	0
  8737   00235E  6E01               	movwf	clcd_write@control_bit^0,c
  8738   002360  5005               	movf	clcd_print@addr^0,w,c
  8739   002362  EC63  F013         	call	_clcd_write
  8740                           
  8741                           ;clcd.c: 60:  while (*data != '\0')
  8742   002366  EFCB  F011         	goto	l4195
  8743   00236A                     l4191:
  8744                           
  8745                           ;clcd.c: 61:  {;clcd.c: 62:   clcd_write(*data++, 1);
  8746   00236A  0E01               	movlw	1
  8747   00236C  6E01               	movwf	clcd_write@control_bit^0,c
  8748   00236E  C003  FFF6         	movff	clcd_print@data,tblptrl
  8749   002372  C004  FFF7         	movff	clcd_print@data+1,tblptrh
  8750   002376  6AF8               	clrf	tblptru,c
  8751   002378  0E05               	movlw	(high __ramtop+-1)
  8752   00237A  64F7               	cpfsgt	tblptrh,c
  8753   00237C  D003               	bra	u2487
  8754   00237E  0008               	tblrd		*
  8755   002380  50F5               	movf	tablat,w,c
  8756   002382  D005               	bra	u2480
  8757   002384                     u2487:
  8758   002384  CFF6 FFE9          	movff	tblptrl,fsr0l
  8759   002388  CFF7 FFEA          	movff	tblptrh,fsr0h
  8760   00238C  50EF               	movf	indf0,w,c
  8761   00238E                     u2480:
  8762   00238E  EC63  F013         	call	_clcd_write
  8763   002392  4A03               	infsnz	clcd_print@data^0,f,c
  8764   002394  2A04               	incf	(clcd_print@data+1)^0,f,c
  8765   002396                     l4195:
  8766                           
  8767                           ;clcd.c: 60:  while (*data != '\0')
  8768   002396  C003  FFF6         	movff	clcd_print@data,tblptrl
  8769   00239A  C004  FFF7         	movff	clcd_print@data+1,tblptrh
  8770   00239E  6AF8               	clrf	tblptru,c
  8771   0023A0  0E05               	movlw	(high __ramtop+-1)
  8772   0023A2  64F7               	cpfsgt	tblptrh,c
  8773   0023A4  D003               	bra	u2497
  8774   0023A6  0008               	tblrd		*
  8775   0023A8  50F5               	movf	tablat,w,c
  8776   0023AA  D005               	bra	u2490
  8777   0023AC                     u2497:
  8778   0023AC  CFF6 FFE9          	movff	tblptrl,fsr0l
  8779   0023B0  CFF7 FFEA          	movff	tblptrh,fsr0h
  8780   0023B4  50EF               	movf	indf0,w,c
  8781   0023B6                     u2490:
  8782   0023B6  0900               	iorlw	0
  8783   0023B8  A4D8               	btfss	status,2,c
  8784   0023BA  EFE1  F011         	goto	u2501
  8785   0023BE  EFE3  F011         	goto	u2500
  8786   0023C2                     u2501:
  8787   0023C2  EFB5  F011         	goto	l4191
  8788   0023C6                     u2500:
  8789   0023C6  0012               	return		;funcret
  8790   0023C8                     __end_of_clcd_print:
  8791                           	callstack 0
  8792                           
  8793 ;; *************** function _clcd_write *****************
  8794 ;; Defined at:
  8795 ;;		line 3 in file "clcd.c"
  8796 ;; Parameters:    Size  Location     Type
  8797 ;;  byte            1    wreg     unsigned char 
  8798 ;;  control_bit     1    0[COMRAM] unsigned char 
  8799 ;; Auto vars:     Size  Location     Type
  8800 ;;  byte            1    1[COMRAM] unsigned char 
  8801 ;; Return value:  Size  Location     Type
  8802 ;;                  1    wreg      void 
  8803 ;; Registers used:
  8804 ;;		wreg
  8805 ;; Tracked objects:
  8806 ;;		On entry : 0/0
  8807 ;;		On exit  : 0/0
  8808 ;;		Unchanged: 0/0
  8809 ;; Data sizes:     COMRAM   BANK0   BANK1   BANK2   BANK3   BANK4   BANK5
  8810 ;;      Params:         1       0       0       0       0       0       0
  8811 ;;      Locals:         1       0       0       0       0       0       0
  8812 ;;      Temps:          0       0       0       0       0       0       0
  8813 ;;      Totals:         2       0       0       0       0       0       0
  8814 ;;Total ram usage:        2 bytes
  8815 ;; Hardware stack levels used: 1
  8816 ;; Hardware stack levels required when called: 1
  8817 ;; This function calls:
  8818 ;;		Nothing
  8819 ;; This function is called by:
  8820 ;;		_init_clcd
  8821 ;;		_clcd_print
  8822 ;;		_clcd_putch
  8823 ;;		_main
  8824 ;;		_authorisation
  8825 ;;		_disp_menu
  8826 ;;		_open_option
  8827 ;;		_view_log
  8828 ;;		_download_log
  8829 ;;		_clear_log
  8830 ;;		_set_time
  8831 ;;		_change_pass
  8832 ;; This function uses a non-reentrant model
  8833 ;;
  8834                           
  8835                           	psect	text43
  8836   0026C6                     __ptext43:
  8837                           	callstack 0
  8838   0026C6                     _clcd_write:
  8839                           	callstack 28
  8840                           
  8841                           ;incstack = 0
  8842                           ;clcd_write@byte stored from wreg
  8843   0026C6  6E02               	movwf	clcd_write@byte^0,c
  8844   0026C8                     
  8845                           ;clcd.c: 3: void clcd_write(unsigned char byte, unsigned char control_bit);clcd.c: 4: {;
      +                          clcd.c: 5:  RC1 = control_bit;
  8846   0026C8  B001               	btfsc	clcd_write@control_bit^0,0,c
  8847   0026CA  EF69  F013         	goto	u2241
  8848   0026CE  EF6C  F013         	goto	u2240
  8849   0026D2                     u2241:
  8850   0026D2  8282               	bsf	3970,1,c	;volatile
  8851   0026D4  EF6D  F013         	goto	u2255
  8852   0026D8                     u2240:
  8853   0026D8  9282               	bcf	3970,1,c	;volatile
  8854   0026DA                     u2255:
  8855   0026DA                     
  8856                           ;clcd.c: 6:  PORTD = byte;
  8857   0026DA  C002  FF83         	movff	clcd_write@byte,3971	;volatile
  8858   0026DE                     
  8859                           ;clcd.c: 9:  RC2 = 1;
  8860   0026DE  8482               	bsf	3970,2,c	;volatile
  8861   0026E0                     
  8862                           ;clcd.c: 10:  RC2 = 0;
  8863   0026E0  9482               	bcf	3970,2,c	;volatile
  8864   0026E2                     
  8865                           ;clcd.c: 12:  TRISD7 = 0xFF;
  8866   0026E2  8E95               	bsf	3989,7,c	;volatile
  8867   0026E4                     
  8868                           ;clcd.c: 13:  RC0 = 1;
  8869   0026E4  8082               	bsf	3970,0,c	;volatile
  8870   0026E6                     
  8871                           ;clcd.c: 14:  RC1 = 0;
  8872   0026E6  9282               	bcf	3970,1,c	;volatile
  8873   0026E8                     l3969:
  8874                           
  8875                           ;clcd.c: 17:  {;clcd.c: 18:   RC2 = 1;
  8876   0026E8  8482               	bsf	3970,2,c	;volatile
  8877   0026EA                     
  8878                           ;clcd.c: 19:   RC2 = 0;
  8879   0026EA  9482               	bcf	3970,2,c	;volatile
  8880   0026EC                     
  8881                           ;clcd.c: 20:  } while (RD7);
  8882   0026EC  BE83               	btfsc	3971,7,c	;volatile
  8883   0026EE  EF7B  F013         	goto	u2261
  8884   0026F2  EF7D  F013         	goto	u2260
  8885   0026F6                     u2261:
  8886   0026F6  EF74  F013         	goto	l3969
  8887   0026FA                     u2260:
  8888   0026FA                     
  8889                           ;clcd.c: 22:  RC0 = 0;
  8890   0026FA  9082               	bcf	3970,0,c	;volatile
  8891                           
  8892                           ;clcd.c: 23:  TRISD7 = 0x00;
  8893   0026FC  9E95               	bcf	3989,7,c	;volatile
  8894   0026FE  0012               	return		;funcret
  8895   002700                     __end_of_clcd_write:
  8896                           	callstack 0
  8897                           
  8898 ;; *************** function ___lwmod *****************
  8899 ;; Defined at:
  8900 ;;		line 7 in file "C:\Program Files\Microchip\xc8\v2.46\pic\sources\c99\common\lwmod.c"
  8901 ;; Parameters:    Size  Location     Type
  8902 ;;  dividend        2    7[COMRAM] unsigned int 
  8903 ;;  divisor         2    9[COMRAM] unsigned int 
  8904 ;; Auto vars:     Size  Location     Type
  8905 ;;  counter         1   11[COMRAM] unsigned char 
  8906 ;; Return value:  Size  Location     Type
  8907 ;;                  2    7[COMRAM] unsigned int 
  8908 ;; Registers used:
  8909 ;;		wreg, status,2, status,0
  8910 ;; Tracked objects:
  8911 ;;		On entry : 0/0
  8912 ;;		On exit  : 0/0
  8913 ;;		Unchanged: 0/0
  8914 ;; Data sizes:     COMRAM   BANK0   BANK1   BANK2   BANK3   BANK4   BANK5
  8915 ;;      Params:         4       0       0       0       0       0       0
  8916 ;;      Locals:         1       0       0       0       0       0       0
  8917 ;;      Temps:          0       0       0       0       0       0       0
  8918 ;;      Totals:         5       0       0       0       0       0       0
  8919 ;;Total ram usage:        5 bytes
  8920 ;; Hardware stack levels used: 1
  8921 ;; Hardware stack levels required when called: 1
  8922 ;; This function calls:
  8923 ;;		Nothing
  8924 ;; This function is called by:
  8925 ;;		_dashboard
  8926 ;;		_event_capture
  8927 ;;		_authorisation
  8928 ;; This function uses a non-reentrant model
  8929 ;;
  8930                           
  8931                           	psect	text44
  8932   0023C8                     __ptext44:
  8933                           	callstack 0
  8934   0023C8                     ___lwmod:
  8935                           	callstack 27
  8936   0023C8  500A               	movf	___lwmod@divisor^0,w,c
  8937   0023CA  100B               	iorwf	(___lwmod@divisor+1)^0,w,c
  8938   0023CC  B4D8               	btfsc	status,2,c
  8939   0023CE  EFEB  F011         	goto	u2321
  8940   0023D2  EFED  F011         	goto	u2320
  8941   0023D6                     u2321:
  8942   0023D6  EF11  F012         	goto	l2115
  8943   0023DA                     u2320:
  8944   0023DA  0E01               	movlw	1
  8945   0023DC  6E0C               	movwf	___lwmod@counter^0,c
  8946   0023DE  EFF5  F011         	goto	l4049
  8947   0023E2                     l4047:
  8948   0023E2  90D8               	bcf	status,0,c
  8949   0023E4  360A               	rlcf	___lwmod@divisor^0,f,c
  8950   0023E6  360B               	rlcf	(___lwmod@divisor+1)^0,f,c
  8951   0023E8  2A0C               	incf	___lwmod@counter^0,f,c
  8952   0023EA                     l4049:
  8953   0023EA  AE0B               	btfss	(___lwmod@divisor+1)^0,7,c
  8954   0023EC  EFFA  F011         	goto	u2331
  8955   0023F0  EFFC  F011         	goto	u2330
  8956   0023F4                     u2331:
  8957   0023F4  EFF1  F011         	goto	l4047
  8958   0023F8                     u2330:
  8959   0023F8                     l4051:
  8960   0023F8  500A               	movf	___lwmod@divisor^0,w,c
  8961   0023FA  5C08               	subwf	___lwmod@dividend^0,w,c
  8962   0023FC  500B               	movf	(___lwmod@divisor+1)^0,w,c
  8963   0023FE  5809               	subwfb	(___lwmod@dividend+1)^0,w,c
  8964   002400  A0D8               	btfss	status,0,c
  8965   002402  EF05  F012         	goto	u2341
  8966   002406  EF07  F012         	goto	u2340
  8967   00240A                     u2341:
  8968   00240A  EF0B  F012         	goto	l4055
  8969   00240E                     u2340:
  8970   00240E  500A               	movf	___lwmod@divisor^0,w,c
  8971   002410  5E08               	subwf	___lwmod@dividend^0,f,c
  8972   002412  500B               	movf	(___lwmod@divisor+1)^0,w,c
  8973   002414  5A09               	subwfb	(___lwmod@dividend+1)^0,f,c
  8974   002416                     l4055:
  8975   002416  90D8               	bcf	status,0,c
  8976   002418  320B               	rrcf	(___lwmod@divisor+1)^0,f,c
  8977   00241A  320A               	rrcf	___lwmod@divisor^0,f,c
  8978   00241C  2E0C               	decfsz	___lwmod@counter^0,f,c
  8979   00241E  EFFC  F011         	goto	l4051
  8980   002422                     l2115:
  8981   002422  C008  F008         	movff	___lwmod@dividend,?___lwmod
  8982   002426  C009  F009         	movff	___lwmod@dividend+1,?___lwmod+1
  8983   00242A  0012               	return		;funcret
  8984   00242C                     __end_of___lwmod:
  8985                           	callstack 0
  8986                           
  8987 ;; *************** function ___lwdiv *****************
  8988 ;; Defined at:
  8989 ;;		line 7 in file "C:\Program Files\Microchip\xc8\v2.46\pic\sources\c99\common\lwdiv.c"
  8990 ;; Parameters:    Size  Location     Type
  8991 ;;  dividend        2    0[COMRAM] unsigned int 
  8992 ;;  divisor         2    2[COMRAM] unsigned int 
  8993 ;; Auto vars:     Size  Location     Type
  8994 ;;  quotient        2    4[COMRAM] unsigned int 
  8995 ;;  counter         1    6[COMRAM] unsigned char 
  8996 ;; Return value:  Size  Location     Type
  8997 ;;                  2    0[COMRAM] unsigned int 
  8998 ;; Registers used:
  8999 ;;		wreg, status,2, status,0
  9000 ;; Tracked objects:
  9001 ;;		On entry : 0/0
  9002 ;;		On exit  : 0/0
  9003 ;;		Unchanged: 0/0
  9004 ;; Data sizes:     COMRAM   BANK0   BANK1   BANK2   BANK3   BANK4   BANK5
  9005 ;;      Params:         4       0       0       0       0       0       0
  9006 ;;      Locals:         3       0       0       0       0       0       0
  9007 ;;      Temps:          0       0       0       0       0       0       0
  9008 ;;      Totals:         7       0       0       0       0       0       0
  9009 ;;Total ram usage:        7 bytes
  9010 ;; Hardware stack levels used: 1
  9011 ;; Hardware stack levels required when called: 1
  9012 ;; This function calls:
  9013 ;;		Nothing
  9014 ;; This function is called by:
  9015 ;;		_dashboard
  9016 ;;		_event_capture
  9017 ;;		_authorisation
  9018 ;; This function uses a non-reentrant model
  9019 ;;
  9020                           
  9021                           	psect	text45
  9022   0022E8                     __ptext45:
  9023                           	callstack 0
  9024   0022E8                     ___lwdiv:
  9025                           	callstack 27
  9026   0022E8  0E00               	movlw	0
  9027   0022EA  6E06               	movwf	(___lwdiv@quotient+1)^0,c
  9028   0022EC  0E00               	movlw	0
  9029   0022EE  6E05               	movwf	___lwdiv@quotient^0,c
  9030   0022F0  5003               	movf	___lwdiv@divisor^0,w,c
  9031   0022F2  1004               	iorwf	(___lwdiv@divisor+1)^0,w,c
  9032   0022F4  B4D8               	btfsc	status,2,c
  9033   0022F6  EF7F  F011         	goto	u2291
  9034   0022FA  EF81  F011         	goto	u2290
  9035   0022FE                     u2291:
  9036   0022FE  EFA9  F011         	goto	l2105
  9037   002302                     u2290:
  9038   002302  0E01               	movlw	1
  9039   002304  6E07               	movwf	___lwdiv@counter^0,c
  9040   002306  EF89  F011         	goto	l4029
  9041   00230A                     l4027:
  9042   00230A  90D8               	bcf	status,0,c
  9043   00230C  3603               	rlcf	___lwdiv@divisor^0,f,c
  9044   00230E  3604               	rlcf	(___lwdiv@divisor+1)^0,f,c
  9045   002310  2A07               	incf	___lwdiv@counter^0,f,c
  9046   002312                     l4029:
  9047   002312  AE04               	btfss	(___lwdiv@divisor+1)^0,7,c
  9048   002314  EF8E  F011         	goto	u2301
  9049   002318  EF90  F011         	goto	u2300
  9050   00231C                     u2301:
  9051   00231C  EF85  F011         	goto	l4027
  9052   002320                     u2300:
  9053   002320                     l4031:
  9054   002320  90D8               	bcf	status,0,c
  9055   002322  3605               	rlcf	___lwdiv@quotient^0,f,c
  9056   002324  3606               	rlcf	(___lwdiv@quotient+1)^0,f,c
  9057   002326  5003               	movf	___lwdiv@divisor^0,w,c
  9058   002328  5C01               	subwf	___lwdiv@dividend^0,w,c
  9059   00232A  5004               	movf	(___lwdiv@divisor+1)^0,w,c
  9060   00232C  5802               	subwfb	(___lwdiv@dividend+1)^0,w,c
  9061   00232E  A0D8               	btfss	status,0,c
  9062   002330  EF9C  F011         	goto	u2311
  9063   002334  EF9E  F011         	goto	u2310
  9064   002338                     u2311:
  9065   002338  EFA3  F011         	goto	l4039
  9066   00233C                     u2310:
  9067   00233C  5003               	movf	___lwdiv@divisor^0,w,c
  9068   00233E  5E01               	subwf	___lwdiv@dividend^0,f,c
  9069   002340  5004               	movf	(___lwdiv@divisor+1)^0,w,c
  9070   002342  5A02               	subwfb	(___lwdiv@dividend+1)^0,f,c
  9071   002344  8005               	bsf	___lwdiv@quotient^0,0,c
  9072   002346                     l4039:
  9073   002346  90D8               	bcf	status,0,c
  9074   002348  3204               	rrcf	(___lwdiv@divisor+1)^0,f,c
  9075   00234A  3203               	rrcf	___lwdiv@divisor^0,f,c
  9076   00234C  2E07               	decfsz	___lwdiv@counter^0,f,c
  9077   00234E  EF90  F011         	goto	l4031
  9078   002352                     l2105:
  9079   002352  C005  F001         	movff	___lwdiv@quotient,?___lwdiv
  9080   002356  C006  F002         	movff	___lwdiv@quotient+1,?___lwdiv+1
  9081   00235A  0012               	return		;funcret
  9082   00235C                     __end_of___lwdiv:
  9083                           	callstack 0
  9084                           
  9085 ;; *************** function _isr *****************
  9086 ;; Defined at:
  9087 ;;		line 3 in file "isr.c"
  9088 ;; Parameters:    Size  Location     Type
  9089 ;;		None
  9090 ;; Auto vars:     Size  Location     Type
  9091 ;;		None
  9092 ;; Return value:  Size  Location     Type
  9093 ;;                  1    wreg      void 
  9094 ;; Registers used:
  9095 ;;		wreg, status,2, status,0
  9096 ;; Tracked objects:
  9097 ;;		On entry : 0/0
  9098 ;;		On exit  : 0/0
  9099 ;;		Unchanged: 0/0
  9100 ;; Data sizes:     COMRAM   BANK0   BANK1   BANK2   BANK3   BANK4   BANK5
  9101 ;;      Params:         0       0       0       0       0       0       0
  9102 ;;      Locals:         0       0       0       0       0       0       0
  9103 ;;      Temps:          0       0       0       0       0       0       0
  9104 ;;      Totals:         0       0       0       0       0       0       0
  9105 ;;Total ram usage:        0 bytes
  9106 ;; Hardware stack levels used: 1
  9107 ;; This function calls:
  9108 ;;		Nothing
  9109 ;; This function is called by:
  9110 ;;		Interrupt level 2
  9111 ;; This function uses a non-reentrant model
  9112 ;;
  9113                           
  9114                           	psect	intcode
  9115   000008                     __pintcode:
  9116                           	callstack 0
  9117   000008                     _isr:
  9118                           	callstack 24
  9119                           
  9120                           ;incstack = 0
  9121   000008  825F               	bsf	int$flags,1,c	;set compiler interrupt flag (level 2)
  9122   00000A  EDA4  F012         	call	int_func,f	;refresh shadow registers
  9123                           
  9124                           	psect	intcode_body
  9125   002548                     __pintcode_body:
  9126                           	callstack 24
  9127   002548                     int_func:
  9128                           	callstack 24
  9129   002548  0006               	pop		; remove dummy address from shadow register refresh
  9130   00254A                     
  9131                           ;isr.c: 5:  static unsigned short count;;isr.c: 7:  if (TMR0IF)
  9132   00254A  A4F2               	btfss	4082,2,c	;volatile
  9133   00254C  EFAA  F012         	goto	i2u441_41
  9134   002550  EFAC  F012         	goto	i2u441_40
  9135   002554                     i2u441_41:
  9136   002554  EFCB  F012         	goto	i2l1103
  9137   002558                     i2u441_40:
  9138   002558                     
  9139                           ;isr.c: 8:  {;isr.c: 9:   TMR0 = TMR0 + 8;
  9140   002558  0E08               	movlw	8
  9141   00255A  24D6               	addwf	214,w,c	;volatile
  9142   00255C  6ED6               	movwf	214,c	;volatile
  9143   00255E  0E00               	movlw	0
  9144   002560  20D7               	addwfc	215,w,c	;volatile
  9145   002562  6ED7               	movwf	215,c	;volatile
  9146                           
  9147                           ;isr.c: 11:   if (count++ == 20000)
  9148   002564  0100               	movlb	0	; () banked
  9149   002566  4B74               	infsnz	isr@count& (0+255),f,b
  9150   002568  2B75               	incf	(isr@count+1)& (0+255),f,b
  9151   00256A  0E21               	movlw	33
  9152   00256C  1974               	xorwf	isr@count& (0+255),w,b
  9153   00256E  E107               	bnz	i2u442_41
  9154   002570  0E4E               	movlw	78
  9155   002572  1975               	xorwf	(isr@count+1)& (0+255),w,b
  9156   002574  A4D8               	btfss	status,2,c
  9157   002576  EFBF  F012         	goto	i2u442_41
  9158   00257A  EFC1  F012         	goto	i2u442_40
  9159   00257E                     i2u442_41:
  9160   00257E  EFCA  F012         	goto	i2l5503
  9161   002582                     i2u442_40:
  9162   002582                     
  9163                           ; BSR set to: 0
  9164                           ;isr.c: 12:   {;isr.c: 13:             count=0;
  9165   002582  0E00               	movlw	0
  9166   002584  6F75               	movwf	(isr@count+1)& (0+255),b
  9167   002586  0E00               	movlw	0
  9168   002588  6F74               	movwf	isr@count& (0+255),b
  9169   00258A                     
  9170                           ; BSR set to: 0
  9171                           ;isr.c: 14:             --sec;
  9172   00258A  065D               	decf	_sec^0,f,c
  9173   00258C  A0D8               	btfss	status,0,c
  9174   00258E  065E               	decf	(_sec+1)^0,f,c
  9175   002590                     
  9176                           ; BSR set to: 0
  9177                           ;isr.c: 15:             secs++;
  9178   002590  4B76               	infsnz	_secs& (0+255),f,b
  9179   002592  2B77               	incf	(_secs+1)& (0+255),f,b
  9180   002594                     i2l5503:
  9181                           
  9182                           ; BSR set to: 0
  9183                           ;isr.c: 17:   TMR0IF = 0;
  9184   002594  94F2               	bcf	4082,2,c	;volatile
  9185   002596                     i2l1103:
  9186   002596  925F               	bcf	int$flags,1,c	;clear compiler interrupt flag (level 2)
  9187   002598  0011               	retfie		f
  9188   00259A                     __end_of_isr:
  9189                           	callstack 0
  9190                           
  9191                           	psect	rparam
  9192   000000                     
  9193                           	psect	temp
  9194   00005F                     btemp:
  9195                           	callstack 0
  9196   00005F                     	ds	1
  9197   000000                     int$flags	set	btemp
  9198   000000                     wtemp8	set	btemp+1
  9199   000000                     ttemp5	set	btemp+1
  9200   000000                     ttemp6	set	btemp+4
  9201   000000                     ttemp7	set	btemp+8
  9202                           
  9203                           	psect	idloc
  9204                           
  9205                           ;Config register IDLOC0 @ 0x200000
  9206                           ;	unspecified, using default values
  9207   200000                     	org	2097152
  9208   200000  FF                 	db	255
  9209                           
  9210                           ;Config register IDLOC1 @ 0x200001
  9211                           ;	unspecified, using default values
  9212   200001                     	org	2097153
  9213   200001  FF                 	db	255
  9214                           
  9215                           ;Config register IDLOC2 @ 0x200002
  9216                           ;	unspecified, using default values
  9217   200002                     	org	2097154
  9218   200002  FF                 	db	255
  9219                           
  9220                           ;Config register IDLOC3 @ 0x200003
  9221                           ;	unspecified, using default values
  9222   200003                     	org	2097155
  9223   200003  FF                 	db	255
  9224                           
  9225                           ;Config register IDLOC4 @ 0x200004
  9226                           ;	unspecified, using default values
  9227   200004                     	org	2097156
  9228   200004  FF                 	db	255
  9229                           
  9230                           ;Config register IDLOC5 @ 0x200005
  9231                           ;	unspecified, using default values
  9232   200005                     	org	2097157
  9233   200005  FF                 	db	255
  9234                           
  9235                           ;Config register IDLOC6 @ 0x200006
  9236                           ;	unspecified, using default values
  9237   200006                     	org	2097158
  9238   200006  FF                 	db	255
  9239                           
  9240                           ;Config register IDLOC7 @ 0x200007
  9241                           ;	unspecified, using default values
  9242   200007                     	org	2097159
  9243   200007  FF                 	db	255
  9244                           
  9245                           	psect	config
  9246                           
  9247                           ; Padding undefined space
  9248   300000                     	org	3145728
  9249   300000  FF                 	db	255
  9250                           
  9251                           ;Config register CONFIG1H @ 0x300001
  9252                           ;	unspecified, using default values
  9253                           ;	Oscillator Selection bits
  9254                           ;	OSC = 0x7, unprogrammed default
  9255                           ;	Fail-Safe Clock Monitor Enable bit
  9256                           ;	FCMEN = 0x0, unprogrammed default
  9257                           ;	Internal/External Oscillator Switchover bit
  9258                           ;	IESO = 0x0, unprogrammed default
  9259   300001                     	org	3145729
  9260   300001  07                 	db	7
  9261                           
  9262                           ;Config register CONFIG2L @ 0x300002
  9263                           ;	unspecified, using default values
  9264                           ;	Power-up Timer Enable bit
  9265                           ;	PWRT = 0x1, unprogrammed default
  9266                           ;	Brown-out Reset Enable bits
  9267                           ;	BOREN = 0x3, unprogrammed default
  9268                           ;	Brown-out Reset Voltage bits
  9269                           ;	BORV = 0x3, unprogrammed default
  9270   300002                     	org	3145730
  9271   300002  1F                 	db	31
  9272                           
  9273                           ;Config register CONFIG2H @ 0x300003
  9274                           ;	unspecified, using default values
  9275                           ;	Watchdog Timer Enable bit
  9276                           ;	WDT = 0x1, unprogrammed default
  9277                           ;	Watchdog Timer Postscale Select bits
  9278                           ;	WDTPS = 0xF, unprogrammed default
  9279   300003                     	org	3145731
  9280   300003  1F                 	db	31
  9281                           
  9282                           ; Padding undefined space
  9283   300004                     	org	3145732
  9284   300004  FF                 	db	255
  9285                           
  9286                           ;Config register CONFIG3H @ 0x300005
  9287                           ;	unspecified, using default values
  9288                           ;	PORTB A/D Enable bit
  9289                           ;	PBADEN = 0x1, unprogrammed default
  9290                           ;	Low-Power Timer 1 Oscillator Enable bit
  9291                           ;	LPT1OSC = 0x0, unprogrammed default
  9292                           ;	MCLR Pin Enable bit
  9293                           ;	MCLRE = 0x1, unprogrammed default
  9294   300005                     	org	3145733
  9295   300005  82                 	db	130
  9296                           
  9297                           ;Config register CONFIG4L @ 0x300006
  9298                           ;	unspecified, using default values
  9299                           ;	Stack Full/Underflow Reset Enable bit
  9300                           ;	STVREN = 0x1, unprogrammed default
  9301                           ;	Single-Supply ICSP Enable bit
  9302                           ;	LVP = 0x1, unprogrammed default
  9303                           ;	Boot Block Size Select bit
  9304                           ;	BBSIZ = 0x0, unprogrammed default
  9305                           ;	Extended Instruction Set Enable bit
  9306                           ;	XINST = 0x0, unprogrammed default
  9307                           ;	Background Debugger Enable bit
  9308                           ;	DEBUG = 0x1, unprogrammed default
  9309   300006                     	org	3145734
  9310   300006  85                 	db	133
  9311                           
  9312                           ; Padding undefined space
  9313   300007                     	org	3145735
  9314   300007  FF                 	db	255
  9315                           
  9316                           ;Config register CONFIG5L @ 0x300008
  9317                           ;	unspecified, using default values
  9318                           ;	Code Protection bit
  9319                           ;	CP0 = 0x1, unprogrammed default
  9320                           ;	Code Protection bit
  9321                           ;	CP1 = 0x1, unprogrammed default
  9322                           ;	Code Protection bit
  9323                           ;	CP2 = 0x1, unprogrammed default
  9324                           ;	Code Protection bit
  9325                           ;	CP3 = 0x1, unprogrammed default
  9326   300008                     	org	3145736
  9327   300008  0F                 	db	15
  9328                           
  9329                           ;Config register CONFIG5H @ 0x300009
  9330                           ;	unspecified, using default values
  9331                           ;	Boot Block Code Protection bit
  9332                           ;	CPB = 0x1, unprogrammed default
  9333                           ;	Data EEPROM Code Protection bit
  9334                           ;	CPD = 0x1, unprogrammed default
  9335   300009                     	org	3145737
  9336   300009  C0                 	db	192
  9337                           
  9338                           ;Config register CONFIG6L @ 0x30000A
  9339                           ;	unspecified, using default values
  9340                           ;	Write Protection bit
  9341                           ;	WRT0 = 0x1, unprogrammed default
  9342                           ;	Write Protection bit
  9343                           ;	WRT1 = 0x1, unprogrammed default
  9344                           ;	Write Protection bit
  9345                           ;	WRT2 = 0x1, unprogrammed default
  9346                           ;	Write Protection bit
  9347                           ;	WRT3 = 0x1, unprogrammed default
  9348   30000A                     	org	3145738
  9349   30000A  0F                 	db	15
  9350                           
  9351                           ;Config register CONFIG6H @ 0x30000B
  9352                           ;	unspecified, using default values
  9353                           ;	Configuration Register Write Protection bit
  9354                           ;	WRTC = 0x1, unprogrammed default
  9355                           ;	Boot Block Write Protection bit
  9356                           ;	WRTB = 0x1, unprogrammed default
  9357                           ;	Data EEPROM Write Protection bit
  9358                           ;	WRTD = 0x1, unprogrammed default
  9359   30000B                     	org	3145739
  9360   30000B  E0                 	db	224
  9361                           
  9362                           ;Config register CONFIG7L @ 0x30000C
  9363                           ;	unspecified, using default values
  9364                           ;	Table Read Protection bit
  9365                           ;	EBTR0 = 0x1, unprogrammed default
  9366                           ;	Table Read Protection bit
  9367                           ;	EBTR1 = 0x1, unprogrammed default
  9368                           ;	Table Read Protection bit
  9369                           ;	EBTR2 = 0x1, unprogrammed default
  9370                           ;	Table Read Protection bit
  9371                           ;	EBTR3 = 0x1, unprogrammed default
  9372   30000C                     	org	3145740
  9373   30000C  0F                 	db	15
  9374                           
  9375                           ;Config register CONFIG7H @ 0x30000D
  9376                           ;	unspecified, using default values
  9377                           ;	Boot Block Table Read Protection bit
  9378                           ;	EBTRB = 0x1, unprogrammed default
  9379   30000D                     	org	3145741
  9380   30000D  40                 	db	64
  9381                           tosu	equ	0xFFF
  9382                           tosh	equ	0xFFE
  9383                           tosl	equ	0xFFD
  9384                           stkptr	equ	0xFFC
  9385                           pclatu	equ	0xFFB
  9386                           pclath	equ	0xFFA
  9387                           pcl	equ	0xFF9
  9388                           tblptru	equ	0xFF8
  9389                           tblptrh	equ	0xFF7
  9390                           tblptrl	equ	0xFF6
  9391                           tablat	equ	0xFF5
  9392                           prodh	equ	0xFF4
  9393                           prodl	equ	0xFF3
  9394                           indf0	equ	0xFEF
  9395                           postinc0	equ	0xFEE
  9396                           postdec0	equ	0xFED
  9397                           preinc0	equ	0xFEC
  9398                           plusw0	equ	0xFEB
  9399                           fsr0h	equ	0xFEA
  9400                           fsr0l	equ	0xFE9
  9401                           wreg	equ	0xFE8
  9402                           indf1	equ	0xFE7
  9403                           postinc1	equ	0xFE6
  9404                           postdec1	equ	0xFE5
  9405                           preinc1	equ	0xFE4
  9406                           plusw1	equ	0xFE3
  9407                           fsr1h	equ	0xFE2
  9408                           fsr1l	equ	0xFE1
  9409                           bsr	equ	0xFE0
  9410                           indf2	equ	0xFDF
  9411                           postinc2	equ	0xFDE
  9412                           postdec2	equ	0xFDD
  9413                           preinc2	equ	0xFDC
  9414                           plusw2	equ	0xFDB
  9415                           fsr2h	equ	0xFDA
  9416                           fsr2l	equ	0xFD9
  9417                           status	equ	0xFD8

Data Sizes:
    Strings     300
    Constant    0
    Data        113
    BSS         103
    Persistent  0
    Stack       0

Auto Spaces:
    Space          Size  Autos    Used
    COMRAM           94     61      94
    BANK0           160      0     103
    BANK1           256      0      80
    BANK2           256      0       0
    BANK3           256      0       0
    BANK4           256      0       0
    BANK5           256      0       0

Pointer List with Targets:

    clcd_print@data	PTR const unsigned char  size(2) Largest target is 80
		 -> gear(BANK0[24]), menu(BANK1[80]), STR_1(CODE[15]), STR_10(CODE[3]), 
		 -> STR_12(CODE[10]), STR_13(CODE[12]), STR_14(CODE[8]), STR_16(CODE[14]), 
		 -> STR_17(CODE[17]), STR_18(CODE[13]), STR_19(CODE[9]), STR_2(CODE[15]), 
		 -> STR_20(CODE[11]), STR_21(CODE[15]), STR_22(CODE[17]), STR_23(CODE[14]), 
		 -> STR_24(CODE[16]), STR_25(CODE[12]), STR_26(CODE[15]), STR_27(CODE[7]), 
		 -> STR_3(CODE[15]), STR_4(CODE[16]), STR_5(CODE[12]), STR_6(CODE[16]), 
		 -> STR_7(CODE[5]), STR_8(CODE[2]), STR_9(CODE[3]), time(BANK0[9]), 

    puts@s	PTR const unsigned char  size(2) Largest target is 17
		 -> download_log@arr(COMRAM[17]), STR_11(CODE[10]), STR_15(CODE[3]), 

    strcmp@l	PTR const unsigned char  size(1) Largest target is 5
		 -> org_pass(BANK0[5]), re_usr_pass(BANK0[5]), 

    strcmp@r	PTR const unsigned char  size(1) Largest target is 5
		 -> authorisation@usr_pass(COMRAM[5]), usr_pass(BANK0[5]), 


Critical Paths under _main in COMRAM

    _main->_dashboard
    _view_log->_clcd_putch
    _set_time->_clcd_putch
    _init_config->_init_ds1307
    _init_ds1307->_read_ds1307
    _init_ds1307->_write_ds1307
    _write_ds1307->_i2c_write
    _init_clcd->_clcd_write
    _download_log->_clcd_print
    _read_24c02->_i2c_write
    _puts->_putch
    _disp_menu->_clcd_putch
    _open_option->_clcd_write
    _dashboard->___fltol
    _get_time->_read_ds1307
    _read_ds1307->_i2c_write
    _event_capture->_write_24c02
    ___xxtofl->_read_adc
    ___fltol->___fldiv
    ___fldiv->___xxtofl
    _clear_log->_clcd_print
    _change_pass->_write_24c02
    _write_24c02->___lwmod
    _authorisation->_clcd_putch
    _clcd_putch->___lwmod
    _clcd_print->_clcd_write
    ___lwmod->___lwdiv

Critical Paths under _isr in COMRAM

    None.

Critical Paths under _main in BANK0

    None.

Critical Paths under _isr in BANK0

    None.

Critical Paths under _main in BANK1

    None.

Critical Paths under _isr in BANK1

    None.

Critical Paths under _main in BANK2

    None.

Critical Paths under _isr in BANK2

    None.

Critical Paths under _main in BANK3

    None.

Critical Paths under _isr in BANK3

    None.

Critical Paths under _main in BANK4

    None.

Critical Paths under _isr in BANK4

    None.

Critical Paths under _main in BANK5

    None.

Critical Paths under _isr in BANK5

    None.

Call Graph Tables:

 ---------------------------------------------------------------------------------
 (Depth) Function   	        Calls       Base Space   Used Autos Params    Refs
 ---------------------------------------------------------------------------------
 (0) _main                                                 4     4      0  140356
                                             57 COMRAM     4     4      0
                      _authorisation
                        _change_pass
                         _clcd_write
                          _clear_log
                          _dashboard
                          _disp_menu
                       _download_log
                        _init_config
                      _read_switches
                           _set_time
                           _view_log
 ---------------------------------------------------------------------------------
 (1) _view_log                                             8     8      0   17022
                                             14 COMRAM     8     8      0
                         _clcd_print
                         _clcd_putch
                         _clcd_write
                         _read_24c02
 ---------------------------------------------------------------------------------
 (1) _set_time                                             5     5      0   17349
                                             14 COMRAM     5     5      0
                         _clcd_print
                         _clcd_putch
                         _clcd_write
                       _write_ds1307
 ---------------------------------------------------------------------------------
 (1) _read_switches                                        1     1      0      44
                                              0 COMRAM     1     1      0
                           _scan_key
 ---------------------------------------------------------------------------------
 (2) _scan_key                                             0     0      0       0
 ---------------------------------------------------------------------------------
 (1) _init_config                                          2     2      0    3877
                                              4 COMRAM     2     2      0
                           _init_adc
                          _init_clcd
                        _init_ds1307
                           _init_i2c
                 _init_matrix_keypad
                        _init_timer0
                         _read_24c02
 ---------------------------------------------------------------------------------
 (2) _init_timer0                                          0     0      0       0
 ---------------------------------------------------------------------------------
 (2) _init_matrix_keypad                                   0     0      0       0
 ---------------------------------------------------------------------------------
 (2) _init_i2c                                             0     0      0       0
 ---------------------------------------------------------------------------------
 (2) _init_ds1307                                          1     1      0     734
                                              3 COMRAM     1     1      0
                        _read_ds1307
                       _write_ds1307
 ---------------------------------------------------------------------------------
 (2) _write_ds1307                                         2     1      1     598
                                              1 COMRAM     2     1      1
                          _i2c_start
                           _i2c_stop
                          _i2c_write
 ---------------------------------------------------------------------------------
 (2) _init_clcd                                            1     1      0    3008
                                              2 COMRAM     1     1      0
                         _clcd_write
 ---------------------------------------------------------------------------------
 (2) _init_adc                                             0     0      0       0
 ---------------------------------------------------------------------------------
 (1) _download_log                                        33    33      0   11976
                                              5 COMRAM    33    33      0
                         _clcd_print
                         _clcd_write
                          _init_uart
                               _puts
                         _read_24c02
 ---------------------------------------------------------------------------------
 (2) _read_24c02                                           2     2      0      67
                                              1 COMRAM     2     2      0
                           _i2c_read
                      _i2c_rep_start
                          _i2c_start
                           _i2c_stop
                          _i2c_write
 ---------------------------------------------------------------------------------
 (2) _puts                                                 2     0      2     295
                                              1 COMRAM     2     0      2
                              _putch
 ---------------------------------------------------------------------------------
 (3) _putch                                                1     1      0      22
                                              0 COMRAM     1     1      0
 ---------------------------------------------------------------------------------
 (2) _init_uart                                            0     0      0       0
 ---------------------------------------------------------------------------------
 (1) _disp_menu                                            2     2      0   19841
                                             14 COMRAM     2     2      0
                         _clcd_print
                         _clcd_putch
                         _clcd_write
                        _open_option
 ---------------------------------------------------------------------------------
 (2) _open_option                                          4     2      2    3182
                                              2 COMRAM     4     2      2
                         _clcd_write
 ---------------------------------------------------------------------------------
 (1) _dashboard                                            1     1      0   19619
                                             56 COMRAM     1     1      0
                            ___fldiv
                            ___fltol
                            ___lwdiv
                            ___lwmod
                           ___xxtofl
                         _clcd_print
                         _clcd_putch
                      _event_capture
                           _get_time
                           _read_adc
 ---------------------------------------------------------------------------------
 (2) _read_adc                                             7     5      2      45
                                              0 COMRAM     7     5      2
 ---------------------------------------------------------------------------------
 (2) _get_time                                             0     0      0      67
                        _read_ds1307
 ---------------------------------------------------------------------------------
 (3) _read_ds1307                                          2     2      0      67
                                              1 COMRAM     2     2      0
                           _i2c_read
                      _i2c_rep_start
                          _i2c_start
                           _i2c_stop
                          _i2c_write
 ---------------------------------------------------------------------------------
 (3) _i2c_rep_start                                        0     0      0       0
                           _i2c_idle
 ---------------------------------------------------------------------------------
 (3) _i2c_read                                             0     0      0       0
                         _i2c_no_ack
                        _i2c_rx_mode
 ---------------------------------------------------------------------------------
 (4) _i2c_rx_mode                                          0     0      0       0
                           _i2c_idle
 ---------------------------------------------------------------------------------
 (4) _i2c_no_ack                                           0     0      0       0
 ---------------------------------------------------------------------------------
 (2) _event_capture                                        2     2      0    2217
                                             18 COMRAM     2     2      0
                            ___lwdiv
                            ___lwmod
                        _write_24c02
 ---------------------------------------------------------------------------------
 (2) ___xxtofl                                            14    10      4     398
                                              7 COMRAM    14    10      4
                           _read_adc (ARG)
 ---------------------------------------------------------------------------------
 (2) ___fltol                                             10     6      4     305
                                             46 COMRAM    10     6      4
                            ___fldiv (ARG)
                           ___xxtofl (ARG)
                           _read_adc (ARG)
 ---------------------------------------------------------------------------------
 (2) ___fldiv                                             25    17      8    1399
                                             21 COMRAM    25    17      8
                           ___xxtofl (ARG)
                           _read_adc (ARG)
 ---------------------------------------------------------------------------------
 (1) _clear_log                                            4     4      0   11039
                                              5 COMRAM     4     4      0
                         _clcd_print
                         _clcd_write
 ---------------------------------------------------------------------------------
 (1) _change_pass                                          7     7      0   17827
                                             18 COMRAM     7     7      0
                         _clcd_print
                         _clcd_putch
                         _clcd_write
                             _strcmp
                        _write_24c02
 ---------------------------------------------------------------------------------
 (3) _write_24c02                                          6     5      1     568
                                             12 COMRAM     6     5      1
                            ___lwdiv (ARG)
                            ___lwmod (ARG)
                          _i2c_start
                           _i2c_stop
                          _i2c_write
 ---------------------------------------------------------------------------------
 (3) _i2c_write                                            1     1      0      22
                                              0 COMRAM     1     1      0
                           _i2c_idle
 ---------------------------------------------------------------------------------
 (3) _i2c_stop                                             0     0      0       0
                           _i2c_idle
 ---------------------------------------------------------------------------------
 (3) _i2c_start                                            0     0      0       0
                           _i2c_idle
 ---------------------------------------------------------------------------------
 (4) _i2c_idle                                             0     0      0       0
 ---------------------------------------------------------------------------------
 (1) _authorisation                                        7     7      0   18754
                                             14 COMRAM     7     7      0
                            ___lwdiv
                            ___lwmod
                         _clcd_print
                         _clcd_putch
                         _clcd_write
                             _strcmp
 ---------------------------------------------------------------------------------
 (2) _strcmp                                               4     2      2     416
                                              0 COMRAM     4     2      2
 ---------------------------------------------------------------------------------
 (2) _clcd_putch                                           2     1      1    5712
                                             12 COMRAM     2     1      1
                            ___lwdiv (ARG)
                            ___lwmod (ARG)
                         _clcd_write
 ---------------------------------------------------------------------------------
 (2) _clcd_print                                           3     0      3    7939
                                              2 COMRAM     3     0      3
                         _clcd_write
 ---------------------------------------------------------------------------------
 (2) _clcd_write                                           2     1      1    3008
                                              0 COMRAM     2     1      1
 ---------------------------------------------------------------------------------
 (3) ___lwmod                                              5     1      4     767
                                              7 COMRAM     5     1      4
                            ___lwdiv (ARG)
 ---------------------------------------------------------------------------------
 (3) ___lwdiv                                              7     3      4     770
                                              0 COMRAM     7     3      4
 ---------------------------------------------------------------------------------
 Estimated maximum stack depth 4
 ---------------------------------------------------------------------------------
 (Depth) Function   	        Calls       Base Space   Used Autos Params    Refs
 ---------------------------------------------------------------------------------
 (7) _isr                                                  0     0      0       0
 ---------------------------------------------------------------------------------
 Estimated maximum stack depth 7
 ---------------------------------------------------------------------------------

 Call Graph Graphs:

 _main (ROOT)
   _authorisation
     ___lwdiv
     ___lwmod
       ___lwdiv (ARG)
     _clcd_print
       _clcd_write
     _clcd_putch
       ___lwdiv (ARG)
       ___lwmod (ARG)
       _clcd_write (ARG)
     _clcd_write
     _strcmp
   _change_pass
     _clcd_print
     _clcd_putch
     _clcd_write
     _strcmp
     _write_24c02
       ___lwdiv (ARG)
       ___lwmod (ARG)
       _i2c_start (ARG)
         _i2c_idle
       _i2c_stop (ARG)
         _i2c_idle
       _i2c_write (ARG)
         _i2c_idle
   _clcd_write
   _clear_log
     _clcd_print
     _clcd_write
   _dashboard
     ___fldiv
       ___xxtofl (ARG)
         _read_adc (ARG)
       _read_adc (ARG)
     ___fltol
       ___fldiv (ARG)
       ___xxtofl (ARG)
       _read_adc (ARG)
     ___lwdiv
     ___lwmod
     ___xxtofl
     _clcd_print
     _clcd_putch
     _event_capture
       ___lwdiv
       ___lwmod
       _write_24c02
     _get_time
       _read_ds1307
         _i2c_read
           _i2c_no_ack
           _i2c_rx_mode
             _i2c_idle
         _i2c_rep_start
           _i2c_idle
         _i2c_start
         _i2c_stop
         _i2c_write
     _read_adc
   _disp_menu
     _clcd_print
     _clcd_putch
     _clcd_write
     _open_option
       _clcd_write
   _download_log
     _clcd_print
     _clcd_write
     _init_uart
     _puts
       _putch
     _read_24c02
       _i2c_read
       _i2c_rep_start
       _i2c_start
       _i2c_stop
       _i2c_write
   _init_config
     _init_adc
     _init_clcd
       _clcd_write
     _init_ds1307
       _read_ds1307
       _write_ds1307
         _i2c_start
         _i2c_stop
         _i2c_write
     _init_i2c
     _init_matrix_keypad
     _init_timer0
     _read_24c02
   _read_switches
     _scan_key
   _set_time
     _clcd_print
     _clcd_putch
     _clcd_write
     _write_ds1307
   _view_log
     _clcd_print
     _clcd_putch
     _clcd_write
     _read_24c02

 _isr (ROOT)

 Address spaces:
Name               Size   Autos  Total    Cost      Usage
BIGRAM             5FF      0       0      27        0.0%
BITBIGSFRlll       281      0       0      25        0.0%
EEDATA             100      0       0       0        0.0%
BITBANK5           100      0       0      14        0.0%
BANK5              100      0       0      15        0.0%
BITBANK4           100      0       0      12        0.0%
BANK4              100      0       0      13        0.0%
BITBANK3           100      0       0      10        0.0%
BANK3              100      0       0      11        0.0%
BITBANK2           100      0       0       8        0.0%
BANK2              100      0       0       9        0.0%
BITBANK1           100      0       0       6        0.0%
BANK1              100      0      50       7       31.2%
BITBANK0            A0      0       0       4        0.0%
BANK0               A0      0      67       5       64.4%
BITCOMRAM           5E      0       0       0        0.0%
COMRAM              5E     3D      5E       1      100.0%
BITBIGSFRhlhh       19      0       0      17        0.0%
BITBIGSFRlhhhhh     10      0       0      19        0.0%
BITBIGSFRllh         F      0       0      24        0.0%
BITBIGSFRhh          D      0       0      16        0.0%
BITBIGSFRhlhlhh      B      0       0      18        0.0%
BITBIGSFRlhhlll      7      0       0      23        0.0%
BITBIGSFRlhhllh      4      0       0      21        0.0%
BITBIGSFRlhhlll      2      0       0      22        0.0%
BITBIGSFRlhhhl       1      0       0      20        0.0%
BIGSFR               0      0       0     200        0.0%
BITSFR_3             0      0       0     200        0.0%
SFR_3                0      0       0     200        0.0%
BITSFR_2             0      0       0     200        0.0%
SFR_2                0      0       0     200        0.0%
BITSFR_1             0      0       0     200        0.0%
SFR_1                0      0       0     200        0.0%
BITSFR               0      0       0     200        0.0%
SFR                  0      0       0     200        0.0%
STACK                0      0       0       2        0.0%
NULL                 0      0       0       0        0.0%
ABS                  0      0     115      26        0.0%
DATA                 0      0     115       3        0.0%
CODE                 0      0       0       0        0.0%


Microchip Technology PIC18 Macro Assembler V2.46 build 20240104201356 
Symbol Table                                                                                   Wed Apr 24 14:44:04 2024

               ___fldiv@aexp 002E                 ___fldiv@bexp 002D                            _i 0052  
                          _t 0055                 ___fldiv@sign 0026               clcd_print@addr 0005  
             clcd_print@data 0003        authorisation@usr_pass 000F                           _GO 7E11  
                         _hr 007A           _init_matrix_keypad 2810                          l101 2820  
                        l112 1E06                          l104 1DB0                          l121 1E72  
                        l113 1E42                          l105 1E9C                          l122 1E9A  
                        l114 1E1A                          l106 1DEC                          l123 1E86  
                        l107 1DC4                          l116 1E2E                          l109 1DD8  
                        l134 22E6                          l119 1E5E                          l262 2698  
                        l265 26C4                          l259 2772                          l375 26FA  
                        l376 26FE                          l624 248A                          l385 23C6  
                        l379 204A                          l388 27E2                          l821 1D94  
                        l813 1CB8                          l653 1220                          l808 18CC  
                        l842 0E7C                          l835 0F4E                          l923 2168  
                        l860 1A94                          l916 1490                          l870 20DA  
                        l790 2728                          _CKE 7E3E                          l787 2636  
                        l795 21EE                          l972 0492                          l965 0368  
                        l958 02EE                          l888 16C2                          _GIE 7F97  
                        _RC0 7C10                          _RC1 7C11                          _RC2 7C12  
                        _RD7 7C1F                          _PEN 7E2A                          _SEN 7E28  
                        _PSA 7EAB                          _SMP 7E3F                          _add 0056  
                        _key 005C                          _min 0078                          _sec 005D  
                        _isr 0008               clcd_putch@addr 000D                          _tok 008E  
             clcd_putch@data 000E                          wreg 0FE8          ?_init_matrix_keypad 0001  
               ___fltol@exp1 0038                         l1002 0866                         l1212 27CA  
                       l2112 235A                         l2105 2352                         l2201 0A24  
                       l2122 242A                         l2210 0B0C                         l2115 2422  
                       l1340 2842                         l1341 2844                         l1351 2874  
                       l2207 0AA6                         l1335 27F8                         l1360 286C  
                       l2209 0B1E                         l4001 2740                         l1338 2834  
                       l1354 2864                         l1602 24E8                         l1363 2882  
                       l4003 274C                         l4011 27A0                         l1348 287C  
                       l4021 22E8                         l1357 285C                         l4013 27A6  
                       l4101 1E28                         l1366 2850                         l4031 2320  
                       l4023 22F0                         l4015 27AC                         l4007 2796  
                       l1471 267E                         l4111 1E58                         l2272 1C48  
                       l4041 234C                         l4033 2326                         l4025 2302  
                       l4017 27FC                         l5001 1306                         l4009 279A  
                       l4201 27BE                         l1474 27B0                         l4035 233C  
                       l4027 230A                         l4051 23F8                         l4043 23C8  
                       l2283 1BE0                         l4019 280A                         l5011 1340  
                       l5003 131A                         l4211 27F0                         l4203 27C6  
                       l4123 1E80                         l4107 1E3C                         l2196 0C00  
                       l2276 1B84                         l4037 2344                         l4029 2312  
                       l4053 240E                         l4045 23DA                         l2293 2546  
                       l2269 1AEC                         l4301 1D70                         l1477 2752  
                       l5021 1368                         l5013 1344                         l5005 132A  
                       l4141 2770                         l4221 2640                         l4213 27F2  
                       l4061 2818                         l4205 27C8                         l4133 1E9A  
                       l4117 1E6C                         l5101 0012                         l2198 0A60  
                       l1590 2832                         l4039 2346                         l4055 2416  
                       l4047 23E2                         l4311 2510                         l1911 1FA2  
                       l4303 1D92                         l4143 2682                         l4231 2706  
                       l5031 13AA                         l5023 137C                         l5015 1360  
                       l5007 1332                         l4223 264C                         l4215 27F4  
                       l4207 27E4                         l4063 281A                         l5111 0054  
                       l5103 0022                         l4057 241C                         l4049 23EA  
                       l4313 2526                         l4305 24EA                         l4145 2696  
                       l4321 205C                         l1593 27FC                         l4233 270C  
                       l5041 13E4                         l5033 13B6                         l5025 1390  
                       l5009 1334                         l4137 2754                         l4161 1FC0  
                       l4153 1FA4                         l4225 2660                         l4217 27F6  
                       l4209 27E8                         l4129 1E94                         l4073 1DBE  
                       l4065 1D96                         l5201 0314                         l5121 00C2  
                       l5113 0066                         l5105 0034                         l4307 24EE  
                       l4411 099E                         l4403 097A                         l4251 21BE  
                       l4243 216A                         l4147 26A6                         l4323 2068  
                       l4331 208C                         l4235 2712                         l5035 13BA  
                       l5027 13A0                         l5051 142C                         l4139 2768  
                       l4171 1FF6                         l4163 1FCA                         l4155 1FA8  
                       l4227 266A                         l4219 2638                         l4059 2810  
                       l4067 1DAA                         l5211 0342                         l5203 0324  
                       l5131 0118                         l5115 0082                         l5107 0038  
                       l1596 280E                         l4309 24F2                         l5301 0592  
                       l4421 09F0                         l4413 09B8                         l4405 098A  
                       l4501 1EF4                         l4261 1C4A                         l4253 21C2  
                       l4245 2188                         l4149 26BC                         l4325 2074  
                       l4333 20D0                         l4317 204C                         l4341 282C  
                       l4237 2716                         l4229 2702                         l5053 1442  
                       l5037 13D6                         l5029 13A8                         l4181 2020  
                       l4173 1FFC                         l4165 1FDA                         l4157 1FAE  
                       l4085 1DE6                         l5221 038E                         l5213 0354  
                       l5205 032A                         l5141 016C                         l5133 012C  
                       l5125 00D4                         l5117 0096                         l5109 004C  
                       l4191 236A                         l5311 05DA                         l5303 05A6  
                       l5071 20DC                         l4431 0A4C                         l4423 0A00  
                       l4415 09C8                         l4407 098A                         l4503 1F04  
                       l4271 1C96                         l4263 1C60                         l4255 21CC  
                       l4247 2196                         l4327 2080                         l4319 2050  
                       l4343 2830                         l4351 24B8                         l4239 2722  
                       l5063 145C                         l5055 144C                         l5047 1400  
                       l5039 13DA                         l4183 202A                         l4175 2006  
                       l4167 1FE4                         l4159 1FB0                         l4095 1E14  
                       l4079 1DD2                         l5231 03DE                         l5223 0398  
                       l5207 033C                         l5215 035C                         l5151 01D8  
                       l5135 013E                         l5143 0180                         l5119 00A6  
                       l5127 00E8                         l4193 2392                         l5401 0830  
                       l5321 0622                         l5313 05E4                         l5305 05B8  
                       l5081 20F8                         l4441 0A8C                         l4433 0A4E  
                       l4425 0A14                         l4417 09D8                         l4361 0894  
                       l4353 0868                         l4513 1F2E                         l4505 1F08  
                       l4281 1CC0                         l4273 1C9A                         l4265 1C64  
                       l4257 21D4                         l4249 21AC                         l4345 248C  
                       l5065 1460                         l5057 1454                         l5049 1428  
                       l4185 2038                         l4177 200E                         l4169 1FEC  
                       l4089 1E00                         l4601 22DC                         l5241 03FA  
                       l5225 03B6                         l5209 0340                         l5161 0228  
                       l5217 0368                         l5153 01F4                         l5145 0194  
                       l5137 015A                         l5129 00FA                         l4195 2396  
                       l5403 0846                         l5331 0664                         l5323 0634  
                       l5307 05CC                         l5315 05EE                         l5083 210E  
                       l4451 0AC8                         l4443 0A96                         l4435 0A5E  
                       l4427 0A22                         l4419 09E8                         l4371 08CE  
                       l4363 08A4                         l4355 0874                         l4531 1F92  
                       l4523 1F56                         l4515 1F38                         l4507 1F16  
                       l4291 1D04                         l4283 1CD4                         l4275 1CB0  
                       l4267 1C74                         l4259 21EA                         l4339 2822  
                       l4347 2490                         l5067 1476                         l4187 2042  
                       l4179 2018                         l4611 2430                         l5251 0446  
                       l5243 0410                         l5227 03CA                         l5219 037A  
                       l5171 0266                         l5163 023A                         l5147 01B2  
                       l5411 0F58                         l4189 235C                         l4197 27CE  
                       l4701 0C4C                         l5405 085C                         l5341 06B4  
                       l5333 0670                         l5325 0640                         l5317 05FE  
                       l5309 05D6                         l5093 2134                         l5085 2122  
                       l5077 20E4                         l4461 0B3A                         l4453 0AD6  
                       l4445 0AA4                         l4437 0A70                         l4429 0A2E  
                       l4381 08FA                         l4373 08D4                         l4365 08B4  
                       l4357 0882                         l4525 1F62                         l4517 1F42  
                       l4541 1AFC                         l4293 1D20                         l4285 1CEC  
                       l4269 1C82                         l4349 24B4                         l5069 1486  
                       l4613 2434                         l4605 22E4                         l5261 0462  
                       l5245 0420                         l5237 03E6                         l5229 03D4  
                       l5181 029A                         l5165 024C                         l5173 026C  
                       l5157 0206                         l5149 01C6                         l5413 0F64  
                       l5421 0FC0                         l4711 0C9C                         l4703 0C56  
                       l5351 070E                         l5343 06CC                         l5327 064C  
                       l5319 0612                         l5271 04A4                         l5095 2144  
                       l5087 212C                         l5079 20F4                         l4471 0BA6  
                       l4463 0B48                         l4455 0B04                         l4439 0A86  
                       l4447 0AB6                         l4391 0934                         l4383 090A  
                       l4375 08DA                         l4367 08B6                         l4359 0884  
                       l4527 1F72                         l4551 1B3A                         l4543 1B12  
                       l4535 1A98                         l4295 1D36                         l4287 1CFE  
                       l4199 27B2                         l4631 246A                         l4615 2440  
                       l5263 0478                         l5239 03F6                         l5247 042A  
                       l5191 02C8                         l5183 02AC                         l5167 025C  
                       l5159 0216                         l5431 1034                         l5423 0FD2  
                       l5415 0F6C                         l5407 0F50                         l4721 0CE8  
                       l4713 0CA8                         l4705 0C68                         l5353 0722  
                       l5345 06DC                         l5337 0680                         l5329 0652  
                       l5281 04F2                         l5273 04B8                         l5097 2148  
                       l4481 0BF4                         l4473 0BC0                         l4465 0B72  
                       l4449 0AC4                         l4393 094A                         l4385 091A  
                       l4377 08E8                         l4369 08BE                         l4529 1F82  
                       l4561 1BC2                         l4553 1B6C                         l4537 1AA8  
                       l4297 1D38                         l4289 1D00                         l4641 173E  
                       l4633 246E                         l4625 2452                         l4617 2444  
                       l4609 242C                         l5265 0482                         l5257 044E  
                       l5249 043C                         l5193 02DA                         l5185 02BC  
                       l5177 0280                         l5169 0262                         l5441 10A2  
                       l5433 103C                         l5425 0FE4                         l5417 0FA2  
                       l5409 0F54                         l4731 0D38                         l4723 0CF4  
                       l4707 0C7E                         l4715 0CAE                         l5371 078A  
                       l5363 0756                         l5355 072C                         l5347 06EC  
                       l5339 06A4                         l5291 0526                         l5283 04F8  
                       l5275 04C8                         l5099 215E                         l4483 0BF6  
                       l4475 0BDC                         l4459 0B2E                         l4467 0B76  
                       l4395 095A                         l4387 091C                         l4379 08EA  
                       l4491 1E9E                         l4571 1C18                         l4563 1BD0  
                       l4555 1B6E                         l4547 1B26                         l4539 1AB6  
                       l4299 1D50                         l3931 287E                         l4651 178A  
                       l4643 1748                         l4635 16C4                         l4811 193A  
                       l4803 18CE                         l4627 245A                         l4619 244A  
                       l5267 048A                         l5259 045E                         l5187 02C2  
                       l5195 02E2                         l5179 0288                         l5451 1112  
                       l5443 10B4                         l5435 1072                         l5427 1000  
                       l5419 0FB6                         l4741 0D8C                         l4733 0D50  
                       l4717 0CC0                         l4709 0C90                         l3925 2834  
                       l3933 2876                         l3941 286E                         l5381 07BC  
                       l5373 0794                         l5365 0768                         l5357 074A  
                       l5349 06FC                         l5293 054A                         l5285 050A  
                       l5277 04DA                         l5269 0494                         l4477 0BE0  
                       l4469 0B90                         l4397 0962                         l4389 0924  
                       l4493 1EB4                         l4573 1C28                         l4565 1BEE  
                       l4557 1B7A                         l4549 1B2E                         l4661 17C0  
                       l4653 1792                         l4645 1758                         l4637 16C8  
                       l4821 19AC                         l4813 1968                         l4805 18E0  
                       l4629 245E                         l4581 2270                         l5189 02C4  
                       l5197 02EE                         l4901 158C                         l5453 1126  
                       l5461 114C                         l5445 10D0                         l5437 1086  
                       l5429 101C                         l4751 0DCA                         l4743 0DAA  
                       l4735 0D60                         l4719 0CD6                         l4727 0D04  
                       l3935 2878                         l3943 2870                         l5391 0804  
                       l5383 07C0                         l5367 076A                         l5295 055A  
                       l5287 0516                         l5279 04E6                         l4479 0BEE  
                       l4399 0966                         l4575 1C36                         l4567 1BF0  
                       l4559 1BB6                         l3927 2866                         l3951 284E  
                       l4671 1808                         l4663 17D6                         l4655 17A6  
                       l4647 176E                         l4639 16D8                         l4831 19FC  
                       l4823 19BE                         l4815 197A                         l4807 18F8  
                       l4583 2280                         l5199 0302                         l4911 15C4  
                       l4903 1594                         l5471 1194                         l5463 1160  
                       l5455 1138                         l5447 10EC                         l5439 1090  
                       l3961 26E0                         l4761 0DE8                         l4745 0DB4  
                       l4729 0D28                         l4737 0D70                         l3937 2854  
                       l5385 07D6                         l5369 076E                         l5297 0572  
                       l4497 1EC8                         l4577 1C38                         l4569 1BF4  
                       l3929 2868                         l3945 285E                         l4681 1852  
                       l4673 1822                         l4665 17EA                         l4649 1782  
                       l5529 20A2                         l4841 1A38                         l4833 1A00  
                       l4825 19C8                         l4817 198C                         l4809 190C  
                       l4585 2286                         l4921 15F2                         l4913 15D4  
                       l4905 1598                         l5481 11E0                         l5473 11A8  
                       l5465 1168                         l5457 1140                         l5449 1100  
                       l3971 26EA                         l3963 26E2                         l3955 26C8  
                       l4771 0E1E                         l4747 0DBC                         l4739 0D82  
                       l3939 2858                         l5387 07EC                         l5379 079C  
                       l5299 0582                         l4499 1EF2                         l3947 2860  
                       l4691 18AC                         l4683 1868                         l4667 17F2  
                       l4659 17AE                         l4851 1A78                         l4843 1A44  
                       l4827 19DA                         l4835 1A0A                         l4819 199C  
                       l4587 2296                         l4595 22B2                         l4931 1626  
                       l4923 15F6                         l4915 15DC                         l4907 15A4  
                       l5483 11E8                         l5475 11B0                         l5467 117A  
                       l5459 1142                         l3973 26EC                         l3965 26E4  
                       l3957 26DA                         l4781 0E5A                         l4773 0E22  
                       l4749 0DC6                         l4757 0DD6                         l4693 0C02  
                       l3981 25FC                         l5397 080C                         l5389 07FA  
                       l3949 2846                         l4669 17F6                         l4677 182C  
                       l4853 1A8A                         l4845 1A56                         l4837 1A1C  
                       l4829 19E6                         l4597 22C2                         l4589 22A8  
                       l4941 165E                         l4933 162E                         l4925 1610  
                       l4917 15E0                         l4909 15A8                         l5485 11FC  
                       l5477 11C4                         l5469 118C                         l3967 26E6  
                       l3959 26DE                         l4791 0EE4                         l4783 0E6C  
                       l4775 0E38                         l4767 0DF0                         l4759 0DDE  
                       l4695 0C12                         l3991 2616                         l3983 2602  
                       l3975 25EC                         l5399 082C                         l4679 183E  
                       l4687 1874                         l4847 1A5C                         l4839 1A26  
                       l4599 22CC                         l4951 16B0                         l4943 1668  
                       l4935 1632                         l4927 1618                         l4919 15EA  
                       l4871 14D4                         l4863 14BA                         l4855 1492  
                       l5487 1204                         l5479 11CC                         l3969 26E8  
                       l4785 0E80                         l4793 0F04                         l4777 0E42  
                       l4769 0E10                         l4697 0C22                         l3985 2606  
                       l3977 25F0                         l3993 272C                         l4689 188C  
                       l4849 1A66                         l4961 124A                         l4953 16B8  
                       l4945 167A                         l4937 163C                         l4929 161C  
                       l4873 14E4                         l4865 14CC                         l4881 1514  
                       l4857 149A                         l5489 1218                         _ADFM 7E07  
                       l4795 0F16                         l4787 0E90                         l4779 0E46  
                       l4699 0C38                         l3979 25F6                         l3995 2730  
                       l4971 1266                         l4955 1228                         l4947 1696  
                       l4939 164E                         l4883 1520                         l4875 14E8  
                       l4859 14B2                         ?_isr 0001                         l4797 0F3C  
                       l4789 0EB0                         l3997 2736                         l4973 127C  
                       l4957 122C                         l4885 1530                         l4949 169E  
                       l4877 14FE                         l4799 0F46                         l3999 273C  
                       l4991 12E0                         l4983 129A                         l4975 1284  
                       l4967 1252                         l4959 123E                         l4895 1554  
                       l4887 153C                         l4879 1506                         l4993 12E6  
                       l4985 129E                         l4969 1262                         l4977 1292  
                       l4897 1568                         l4889 154C                         l4995 12EA  
                       l4987 12B4                         l4899 157C                         l4989 12D4  
                       l4999 12F2                         _ADON 7E10                         STR_1 2F25  
                       STR_2 2F52                         STR_3 2F34                         STR_4 2EF5  
                       STR_5 2F99                         STR_6 2F05                         STR_7 2FF4  
                       STR_8 2FFD                         STR_9 2FFC                         _BRGH 7D62  
                       _CREN 7D5C                         _T0CS 7EAD                         u3000 1BE0  
                       u3001 1BDC                         u3010 1BEE                         u3011 1BEA  
                       u2300 2320                         u3020 1C28                         u3100 1758  
                       u2301 231C                         u3021 1C24                         u3101 1754  
                       u2310 233C                         u2230 2842                         u3030 1C36  
                       u3110 176E                         u2311 2338                         u2231 283E  
                       u3031 1C32                         u3111 176A                         u2320 23DA  
                       u2240 26D8                         u4000 04A4                         u3200 1852  
                       u3120 1782                         u2400 1E14                         u3040 2280  
                       u2321 23D6                         u2241 26D2                         u4001 04A0  
                       u3201 184E                         u3121 177E                         u2401 1E10  
                       u3041 227C                         u2330 23F8                         u4010 04B8  
                       u3210 1868                         u3130 17A6                         u2410 1E28  
                       u3050 2296                         u2331 23F4                         u4011 04B4  
                       u3211 1864                         u3131 17A2                         u2411 1E24  
                       u3051 2292                         u2340 240E                         u2260 26FA  
                       u2500 23C6                         u3300 0D82                         u3220 0C12  
                       u4100 0634                         u4020 04DA                         u3140 17C0  
                       u2420 1E3C                         u3060 22A8                         u2341 240A  
                       u2261 26F6                         u2501 23C2                         u3301 0D7E  
                       u3221 0C0E                         u4101 0630                         u4021 04D6  
                       u3141 17BC                         u2421 1E38                         u3061 22A4  
                       u3310 0DAA                         u3230 0C38                         u2270 2636  
                       u4110 0664                         u4030 050A                         u2510 2196  
                       u3150 17D6                         u2430 1E58                         u2350 1DAA  
                       u3070 22C2                         u2255 26DA                         u3311 0DA6  
                       u3231 0C34                         u2271 2632                         u4111 0660  
                       u4031 0506                         u2511 2192                         u3151 17D2  
                       u2431 1E54                         u2351 1DA6                         u3071 22BE  
                       u2600 2526                         u3320 0E38                         u3240 0C68  
                       u4120 06A4                         u4040 054A                         u2520 1C60  
                       u3160 17EA                         u3400 19DA                         u2280 280A  
                       u2440 1E6C                         u2360 1DBE                         u3080 22DC  
                       u4200 0FA2                         u2601 2522                         u3321 0E34  
                       u3241 0C64                         u4121 06A0                         u4041 0546  
                       u2521 1C5C                         u3161 17E6                         u3401 19D6  
                       u2281 2806                         u2441 1E68                         u2361 1DBA  
                       u3081 22D8                         u4201 0F9E                         u2290 2302  
                       u3330 0E5A                         u3250 0C7E                         u4130 06CC  
                       u4050 0572                         u2530 1C74                         u3170 1808  
                       u3410 19FC                         u2610 24B0                         u3090 248A  
                       u2450 1E80                         u2370 1DD2                         u4210 0FD2  
                       u2291 22FE                         u3331 0E56                         u3251 0C7A  
                       u4131 06C8                         u4051 056E                         u2531 1C70  
                       u3171 1804                         u3411 19F8                         u3091 2486  
                       u2451 1E7C                         u2371 1DCE                         u4211 0FCE  
                       u3340 0E6C                         u3260 0CC0                         u4140 070E  
                       u4060 05B8                         u2700 094A                         u2540 1C96  
                       u3180 1822                         u3420 1A1C                         u2620 24D8  
                       u2460 1E94                         u2380 1DE6                         u3500 157C  
                       u4300 1112                         u4220 0FE4                         u3341 0E68  
                       u3261 0CBC                         u4141 070A                         u4061 05B4  
                       u2701 0946                         u2541 1C92                         u3181 181E  
                       u3421 1A18                         u2461 1E90                         u2381 1DE2  
                       u3501 1578                         u4301 110E                         u4221 0FE0  
                       u3350 0F16                         u3270 0CD6                         u4150 0722  
                       u4070 05CC                         u2710 098A                         u2550 1CB0  
                       u2470 26A6                         u3190 183E                         u3430 1A38  
                       u2630 24E8                         u2390 1E00                         u3510 15C4  
                       u4310 1126                         u4230 1000                         u3351 0F12  
                       u3271 0CD2                         u4151 071E                         u4071 05C8  
                       u2711 0986                         u2551 1CAC                         u2471 26A2  
                       u3191 183A                         u3431 1A34                         u2631 24E4  
                       u2391 1DFC                         u3511 15C0                         u4311 1122  
                       u4231 0FFC                         u2480 238E                         u3280 0D28  
                       u4160 074A                         u4080 05FE                         u2800 0B04  
                       u2720 0A00                         u2640 0882                         u2560 1CD4  
                       u3440 1A56                         u3360 18E0                         u3600 1306  
                       u3520 164E                         u4400 1218                         u4320 1138  
                       u4240 101C                         u3281 0D24                         u4161 0746  
                       u4081 05FA                         u2801 0B00                         u2721 09FC  
                       u2641 087E                         u2561 1CD0                         u3441 1A52  
                       u3361 18DC                         u2617 24A6                         u3601 1302  
                       u3521 164A                         u4401 1214                         u4321 1134  
                       u4241 1018                         u2490 23B6                         u3290 0D50  
                       u4170 078A                         u4090 0612                         u2810 0B1A  
                       u2730 0A22                         u2650 0894                         u2570 1CE8  
                       u3450 1A78                         u3370 197A                         u3610 131A  
                       u3530 165E                         u4330 1160                         u4250 1072  
                       u3291 0D4C                         u4171 0786                         u4091 060E  
                       u2811 0B16                         u2731 0A1E                         u2651 0890  
                       u2571 1CE4                         u3451 1A74                         u3371 1976  
                       u2627 24CE                         u3611 1316                         u3531 165A  
                       u4331 115C                         u4251 106E                         u4180 07D6  
                       u3700 215E                         u2820 0B2E                         u2740 0A4C  
                       u2660 08A4                         u2900 1F2A                         u2580 1D20  
                       u3380 198C                         u3620 1360                         u3540 167A  
                       u3460 14B2                         u4340 117A                         u4260 10A2  
                       u4181 07D2                         u3701 215A                         u2821 0B2A  
                       u2741 0A48                         u2661 08A0                         u2901 1F26  
                       u2581 1D1C                         u3381 1988                         u3621 135C  
                       u3541 1676                         u3461 14AE                         u4341 1176  
                       u4261 109E                         u2590 2510                         u4190 0846  
                       u2830 0B48                         u2750 0A70                         u2670 08E8  
                       u2910 1F52                         u3390 19BE                         u3630 137C  
                       u3710 0034                         u3550 1696                         u3470 14CC  
                       u4350 118C                         u4270 10B4                         u2487 2384  
                       u2591 250C                         u4191 0842                         u2831 0B44  
                       u2751 0A6C                         u2671 08E4                         u2911 1F4E  
                       u3391 19BA                         u3631 1378                         u3711 0030  
                       u3551 1692                         u3471 14C8                         u4351 1188  
                       u4271 10B0                         u2840 0B90                         u2760 0A86  
                       u2680 08FA                         u2920 1F72                         u3640 1390  
                       u3800 01B2                         u3720 004C                         u3560 16B0  
                       u3480 14FE                         u4360 11A8                         u4280 10D0  
                       u2497 23AC                         u2841 0B8C                         u2761 0A82  
                       u2681 08F6                         u2921 1F6E                         u3641 138C  
                       u3801 01AE                         u3721 0048                         u3561 16AC  
                       u3481 14FA                         u4361 11A4                         u4281 10CC  
                       u2850 0BC0                         u2770 0AA4                         u2690 090A  
                       u2930 1F82                         u3650 13D6                         u3570 123E  
                       u3810 01F4                         u3730 0066                         u3490 1568  
                       u4370 11C4                         u4290 10EC                         u2851 0BBC  
                       u2771 0AA0                         u2691 0906                         u2931 1F7E  
                       u3651 13D2                         u3571 123A                         u3811 01F0  
                       u3731 0062                         u3491 1564                         u4371 11C0  
                       u4291 10E8                         _PEIE 7F96                         u2860 0BEE  
                       u2780 0AC4                         u2940 1AA8                         u3660 1428  
                       u3580 127C                         u3900 02DA                         u3820 0228  
                       u3740 0082                         u4380 11E0                         u2861 0BEA  
                       u2781 0AC0                         u2941 1AA4                         u3661 1424  
                       u3581 1278                         u4437 1FB6                         u3901 02D6  
                       u3821 0224                         u3741 007E                         u4381 11DC  
                       u2790 0AD6                         u2870 1EB4                         u2950 1AB6  
                       u3670 1442                         u3590 12B4                         u3910 0302  
                       u3830 023A                         u3750 00C2                         u4390 11FC  
                       u2791 0AD2                         u2871 1EB0                         u2951 1AB2  
                       u3671 143E                         u3591 12B0                         u4447 1FD0  
                       u3911 02FE                         u3831 0236                         u3751 00BE  
                       u4391 11F8                         u2880 1EE8                         u2960 1B12  
                       u3680 1476                         u3920 0314                         u3840 024C  
                       u3760 00FA                         u2961 1B0E                         u3681 1472  
                       u4457 1FE6                         u3921 0310                         u3841 0248  
                       u3761 00F6                         u3690 210E                         u2890 1F16  
                       u2970 1B68                         u3930 0324                         u3850 025C  
                       u3770 0118                         u3691 210A                         u2891 1F12  
                       u2971 1B64                         u4467 2008                         u3931 0320  
                       u3851 0258                         u3771 0114                         _RCIE 7CED  
                       u2980 1BB2                         u3940 033C                         u3860 027C  
                       u3780 015A                         _RCEN 7E2B                         _RCIF 7CF5  
                       u2885 1EDE                         u2981 1BAE                         u4477 201A  
                       u3941 0338                         u3861 0278                         u3781 0156  
                       u2990 1BD0                         u3950 0354                         u3870 029A  
                       u3790 0194                         u2991 1BCC                         u4487 2030  
                       u3951 0350                         u3871 0296                         u3791 0190  
                       u3960 037A                         u3880 02AC                         u4497 2044  
                       u3961 0376                         u3881 02A8                         u3970 0410  
                       u3890 02BC                         u3971 040C                         u3891 02B8  
                       u3980 043C                         u3981 0438                         u3990 0478  
                       u3991 0474                         _RBPU 7F8F                         _TMR0 0FD6  
                       _SPEN 7D5F                         _RSEN 7E29                         _TXIF 7CF4  
                       _addr 005B                         _data 005A                         _gear 00AF  
                       _flag 00AA                         _main 0F50                         _line 0082  
                       _menu 0100                         _pass 0084                         _secs 0076  
                       _time 0090                         fsr0h 0FEA                         fsr1h 0FE2  
                       indf0 0FEF                         fsr2h 0FDA                         fsr0l 0FE9  
                       indf2 0FDF                         fsr1l 0FE1                         fsr2l 0FD9  
                       btemp 005F                         _puts 248C                         prodh 0FF4  
                       prodl 0FF3                         start 000E              ___fldiv@new_exp 0027  
       ??_init_matrix_keypad 0001                 ___param_bank 0000               clcd_write@byte 0002  
              _i2c_rep_start 285E                ??_i2c_rx_mode 0001                  _write_24c02 25EA  
                      ??_isr 0001                 ?_init_ds1307 0001                ___fltol@sign1 0037  
                      _ADCS0 7E00                        _ADCS1 7E01                        _ADCS2 7E02  
                      ?_main 0001                 ?_read_ds1307 0001                        _ACKEN 7E2C  
                      _ACKDT 7E2D                        _BCLIF 7D0B              __end_of___fldiv 0C02  
                      _ACQT0 7E03                        _ACQT1 7E04                        _ACQT2 7E05  
                      _EEADR 0FA9                        STR_10 2FFC                        STR_11 2FC8  
                      STR_12 2FD2                        STR_20 2FBD                        STR_13 2FA5  
                      STR_21 2F43                        STR_14 2FE5                        STR_22 2EE4  
                      STR_15 2FF9                        STR_23 2F7E                        STR_16 2F70  
                      STR_24 2F15                        STR_25 2FB1                        STR_17 2ED3  
                      STR_18 2F8C                        STR_26 2F61                        STR_27 2FED  
                      STR_19 2FDC              __end_of___fltol 1FA4                        ?_puts 0002  
             read_24c02@data 0003              __end_of___lwdiv 235C              __end_of___lwmod 242C  
               ?_init_config 0001                        _VCFG0 7E0C                        _VCFG1 7E0D  
                      _RCREG 0FAE                        _SPBRG 0FAF                        _PORTB 0F81  
                      _PORTD 0F83                        _TRISB 0F93                        _TRISC 0F94  
                      _TRISD 0F95                        _SSPIF 7CF3                        _TXREG 0FAD  
               ?_init_timer0 0001                        _delay 0042                        _line1 0080  
                      _count 0059                        _putch 27FA                        tablat 0FF5  
                      puts@s 0002                        ttemp5 0060                        ttemp6 0063  
                      ttemp7 0067                        status 0FD8                        wtemp8 0060  
           init_ds1307@dummy 0004                   _i2c_no_ack 287E              __initialization 21F0  
             ?_i2c_rep_start 0001                 __end_of_main 1228                 __end_of_puts 24EA  
           __end_of_i2c_idle 2846             __end_of_i2c_read 2852             __end_of_i2c_stop 2876  
              ?_download_log 0001                       ??_main 003A                       ??_puts 0004  
              __activetblptr 0002          __end_of_i2c_rx_mode 286E                       _ADCON0 0FC2  
                     _ADCON1 0FC1             read_switches@key 0054                       _ADRESH 0FC4  
                     _ADRESL 0FC3                       _EEDATA 0FA8                       _EECON2 0FA7  
                     _T08BIT 7EAE                _authorisation 0C02                       ?_putch 0001  
             clear_log@i_696 0008                       _GODONE 7E11                       i2l1103 2596  
                     i2l5501 2590                       i2l5503 2594                       i2l5493 254A  
                     i2l5495 2558                       i2l5497 2582                       i2l5499 258A  
               _write_ds1307 2794                       _TMR0IE 7F95                       _TMR0IF 7F92  
                     _TMR0ON 7EAF                       _SSPADD 0FC8                       _TRISC3 7CA3  
                     _TRISC4 7CA4                       _TRISC6 7CA6                       _TRISC7 7CA7  
                     _TRISD7 7CAF                       _SSPBUF 0FC9                 ?_open_option 0003  
           __end_of___xxtofl 1C4A             __end_of_get_time 21F0                    ??___fldiv 001E  
                     _delay1 003E                       _delay2 006D                       _delay3 0069  
                  ??___fltol 0033                    ??___lwdiv 0005                    ??___lwmod 000C  
                     _count1 0058             __end_of_init_i2c 27FA             __end_of_init_adc 2774  
           __end_of_read_adc 26C6                       clear_0 224E                       clear_1 225A  
             ??_download_log 0006                       isa$std 0001             __end_of_scan_key 1E9E  
                     _strcmp 24EA                 __pdataCOMRAM 005D             __end_of_set_time 0494  
               __mediumconst 2ED2                       tblptrh 0FF7                       tblptrl 0FF6  
                     tblptru 0FF8             __end_of_view_log 16C4               ?_authorisation 0001  
             authorisation@i 0014                _event_capture 1C4A                 ___xxtofl@arg 0012  
               ___xxtofl@exp 0011                 ___xxtofl@val 0008                   __accesstop 0060  
    __end_of__initialization 2260                ___rparam_used 0001                   ___fltol@f1 002F  
            ??_i2c_rep_start 0001                  ?_i2c_no_ack 0001               __pcstackCOMRAM 0001  
         change_pass@address 0013                 __pidataBANK0 2774                 __pidataBANK1 259A  
                _i2c_rx_mode 2866                __end_of_putch 2810               open_option@num 0003  
         write_24c02@address 000E            __end_of_i2c_start 287E            __end_of_i2c_write 285E  
                    ??_putch 0001               ?_event_capture 0001                   __pbssBANK0 0060  
                  ?_i2c_idle 0001                    ?_i2c_read 0001                    ?_i2c_stop 0001  
                 _clcd_print 235C                   _clcd_putch 27CC                   _clcd_write 26C6  
            read_ds1307@data 0003                 ?_write_24c02 000D            read_switches@once 00AE  
                    _ACKSTAT 7E2E                      ?_strcmp 0001                    ?___xxtofl 0008  
            ??_authorisation 000F                      _SSPCON1 0FC6                    ?_get_time 0001  
              _read_switches 226E                   ??_i2c_idle 0001                   ??_i2c_read 0001  
          __end_of_dashboard 18CE                   ??_i2c_stop 0001                    ?_init_i2c 0001  
       __end_of_download_log 1492                    ?_init_adc 0001                   _main_count 004A  
                  ?_read_adc 0001            __end_of_clear_log 216A                    ?_scan_key 0001  
                 _read_24c02 2700                      __Hparam 0000                      __Lparam 0000  
                  ?_set_time 0001            __end_of_disp_menu 1A96                   _event_flag 008C  
                    ___fldiv 0868                    ?_view_log 0001                      ___fltol 1E9E  
                    ___lwdiv 22E8                      ___lwmod 23C8              write_24c02@data 000D  
                    _address 008F                   _line_count 007C                      __pcinit 21F0  
                    __ramtop 0600                      __ptext0 0F50                      __ptext1 1492  
                    __ptext2 0012                      __ptext3 226E                      __ptext4 1D96  
                    __ptext5 242C                      __ptext6 27B2                      __ptext7 2810  
                    __ptext8 27E4                      __ptext9 2638                      _attempt 00AC  
          __end_of_init_clcd 204C                 write_24c02@i 000F                   ??___xxtofl 000C  
          __end_of_init_uart 2834                ??_change_pass 0013                 init_config@i 0005  
            ??_event_capture 0013               ?_read_switches 0001                   ??_get_time 0004  
             __pintcode_body 2548         end_of_initialization 2260                   clear_log@i 0006  
                 ??_init_i2c 0001                   ??_init_adc 0001                __Lmediumconst 2ED2  
                 ??_read_adc 0003                      int_func 2548                   ??_scan_key 0001  
                ?_clcd_print 0003                  ?_clcd_putch 000D                  ?_clcd_write 0001  
                 ??_set_time 000F                      postdec1 0FE5                      postinc0 0FEE  
                    postinc1 0FE6                      postinc2 0FDE                   ??_view_log 000F  
                 _time_field 0046                      strcmp@l 0001                      strcmp@r 0002  
                  _PORTBbits 0F81              read_adc@channel 0007                i2c_write@data 0001  
              ___xxtofl@sign 0010              read_adc@reg_val 0005                  ___fldiv@grs 0029  
                ___fldiv@rem 0022          __end_of_change_pass 0868                  ?_read_24c02 0001  
             event_capture@j 0013                 ??_i2c_no_ack 0001            view_log@view_addr 0013  
               ?_i2c_rx_mode 0001                __pidataCOMRAM 2884               __end_of_strcmp 2548  
        start_initialization 21F0             change_pass@i_712 0016             change_pass@i_709 0014  
            ??_read_switches 0001                    _i2c_start 2876                  __end_of_isr 259A  
                  _i2c_write 2852           __end_of_i2c_no_ack 2884        __end_of_i2c_rep_start 2866  
              ??_init_ds1307 0004                  __pdataBANK0 00A8                  __pdataBANK1 0100  
              ??_read_ds1307 0002                 _download_log 1228                     ??_strcmp 0003  
read_switches@detection_type 0001                ??_init_config 0005                    ___fldiv@a 001A  
                  ___fldiv@b 0016                ??_init_timer0 0001                  __pbssCOMRAM 003E  
                _change_pass 0494                   ?_i2c_start 0001                   ?_i2c_write 0001  
               change_pass@i 0018                    _dashboard 16C4             ___lwdiv@dividend 0001  
                  _clear_log 20DC                    _edit_time 0060                    __pintcode 0008  
              __pmediumconst 2ED2                     ?___fldiv 0016                     ?___fltol 002F  
         read_ds1307@address 0002                     ?___lwdiv 0001                    _clock_reg 0071  
                   ?___lwmod 0008                    _disp_menu 18CE                    _main_flag 004C  
        __end_of_init_ds1307 2680          __end_of_read_ds1307 2754             ___lwdiv@quotient 0005  
      __end_of_authorisation 0F50            read_24c02@address 0002                    _init_clcd 1FA4  
        __end_of_init_config 248C                    _init_uart 2822                    _menu_flag 0088  
                  _log_count 0057                ?_write_ds1307 0002          __end_of_init_timer0 27CC  
                  _pass_flag 0086                ??_open_option 0005                 ??_clcd_print 0006  
               ??_clcd_putch 000E   __end_of_init_matrix_keypad 2822                 ??_clcd_write 0002  
                 ?_dashboard 0001                     i2u441_40 2558                     i2u441_41 2554  
                   i2u442_40 2582                     i2u442_41 257E                     _PIR2bits 0FA1  
                 ?_clear_log 0001                    _speed_val 0050                download_log@i 001B  
              download_log@j 0023                download_log@k 0025                   ?_disp_menu 0001  
      clcd_write@control_bit 0001                    _star_flag 004E                  ??_i2c_start 0001  
         __end_of_clcd_print 23C8                  ??_i2c_write 0001           __end_of_clcd_putch 27E4  
         __end_of_clcd_write 2700                   ?_init_clcd 0001                   ?_init_uart 0001  
                  copy_data0 2204                    copy_data1 2224        __end_of_event_capture 1D96  
             ??_write_ds1307 0003                     _i2c_idle 2834                     _i2c_read 2846  
                   _i2c_stop 286E                   _EECON1bits 0FA6                 ??_read_24c02 0002  
              set_time@i_702 0012                     __Hrparam 0000                     __Lrparam 0000  
        __end_of_open_option 20DC                  _init_ds1307 2638                  _read_ds1307 272A  
                _init_config 242C                     ___xxtofl 1A96          write_ds1307@address 0003  
                _init_timer0 27B2           __end_of_read_24c02 272A              ___lwdiv@divisor 0003  
            ___lwdiv@counter 0007                     __ptext10 2794                     __ptext11 1FA4  
                   __ptext20 16C4                     __ptext12 2754                     __ptext21 2680  
                   __ptext13 1228                     __ptext30 1E9E                     __ptext22 216A  
                   __ptext14 2700                     __ptext31 0868                     __ptext23 272A  
                   __ptext15 248C                     __ptext40 24EA                     __ptext32 20DC  
                   __ptext24 285E                     __ptext16 27FA                     __ptext41 27CC  
                   __ptext33 0494                     __ptext25 2846                     __ptext17 2822  
                   __ptext42 235C                     __ptext34 25EA                     __ptext26 2866  
                   __ptext18 18CE                     __ptext43 26C6                     __ptext35 2852  
                   __ptext27 287E                     __ptext19 204C                     __ptext44 23C8  
                   __ptext36 286E                     __ptext28 1C4A                     __ptext45 22E8  
                   __ptext37 2876                     __ptext29 1A96                     __ptext38 2834  
                   __ptext39 0C02                     _get_time 216A                     _init_i2c 27E4  
                   _key_flag 008A                     _init_adc 2754                     _read_adc 2680  
                   _sec_flag 007E                     _scan_key 1D96                     _no_event 0048  
                  set_time@i 0010                  ??_dashboard 0039                     _org_pass 00A3  
                ??_clear_log 0006                     _set_time 0012                     isa$xinst 0000  
              ??_write_24c02 000E                     int$flags 005F                     _view_log 1492  
                ??_disp_menu 000F                     _usr_pass 009E                  _re_usr_pass 0099  
                  view_log@i 0011                    view_log@j 0015                    putch@byte 0001  
               ?_change_pass 0001                     isr@count 0074                  ??_init_clcd 0003  
      __end_of_read_switches 22E8                  ??_init_uart 0001                     intlevel2 0000  
           ___lwmod@dividend 0008                  _open_option 204C            authorisation@once 00A8  
       __end_of_write_ds1307 27B2          __end_of_write_24c02 2638              ___lwmod@divisor 000A  
            ___lwmod@counter 000C             write_ds1307@data 0002            download_log@i_690 0017  
          download_log@i_691 0021            download_log@i_683 001D            download_log@i_686 001F  
            download_log@arr 0006  
